ARM GAS  C:\Users\cring\AppData\Local\Temp\ccGHmfvv.s 			page 1


   1              		.syntax unified
   2              		.cpu cortex-m4
   3              		.eabi_attribute 27, 1
   4              		.fpu fpv4-sp-d16
   5              		.eabi_attribute 20, 1
   6              		.eabi_attribute 21, 1
   7              		.eabi_attribute 23, 3
   8              		.eabi_attribute 24, 1
   9              		.eabi_attribute 25, 1
  10              		.eabi_attribute 26, 1
  11              		.eabi_attribute 30, 1
  12              		.eabi_attribute 34, 1
  13              		.eabi_attribute 18, 4
  14              		.thumb
  15              		.syntax unified
  16              		.file	"batteriControl.c"
  17              		.text
  18              	.Ltext0:
  19              		.cfi_sections	.debug_frame
  20              		.section	.text.getVoltageLevel_mV,"ax",%progbits
  21              		.align	2
  22              		.global	getVoltageLevel_mV
  23              		.thumb
  24              		.thumb_func
  25              		.type	getVoltageLevel_mV, %function
  26              	getVoltageLevel_mV:
  27              	.LFB696:
  28              		.file 1 "batteriControl.h"
   1:batteriControl.h **** #pragma once
   2:batteriControl.h **** #include "project.h"
   3:batteriControl.h **** 
   4:batteriControl.h **** uint16 mV;
   5:batteriControl.h **** 
   6:batteriControl.h **** uint16 getVoltageLevel_mV();
   7:batteriControl.h **** 
   8:batteriControl.h **** uint16 getVoltageLevel_mV()
   9:batteriControl.h **** {
  29              		.loc 1 9 0
  30              		.cfi_startproc
  31              		@ args = 0, pretend = 0, frame = 0
  32              		@ frame_needed = 0, uses_anonymous_args = 0
  33 0000 38B5     		push	{r3, r4, r5, lr}
  34              		.cfi_def_cfa_offset 16
  35              		.cfi_offset 3, -16
  36              		.cfi_offset 4, -12
  37              		.cfi_offset 5, -8
  38              		.cfi_offset 14, -4
  10:batteriControl.h ****     //Starter Batteri ADC konvertering
  11:batteriControl.h ****     Batteri_ADC_Start();
  39              		.loc 1 11 0
  40 0002 FFF7FEFF 		bl	Batteri_ADC_Start
  41              	.LVL0:
  12:batteriControl.h ****     Batteri_ADC_StartConvert();
  42              		.loc 1 12 0
  43 0006 FFF7FEFF 		bl	Batteri_ADC_StartConvert
  44              	.LVL1:
  13:batteriControl.h ****     //Venter på Batteri ADC konvertering er færdig
ARM GAS  C:\Users\cring\AppData\Local\Temp\ccGHmfvv.s 			page 2


  14:batteriControl.h ****     Batteri_ADC_IsEndConversion(1);
  45              		.loc 1 14 0
  46 000a 0120     		movs	r0, #1
  47 000c FFF7FEFF 		bl	Batteri_ADC_IsEndConversion
  48              	.LVL2:
  49              	.LBB19:
  50              	.LBB20:
  51              		.file 2 "Generated_Source\\PSoC6/Batteri_ADC.h"
   1:Generated_Source\PSoC6/Batteri_ADC.h **** /***************************************************************************//**
   2:Generated_Source\PSoC6/Batteri_ADC.h **** * \file     Batteri_ADC.h
   3:Generated_Source\PSoC6/Batteri_ADC.h **** * \version  3.10
   4:Generated_Source\PSoC6/Batteri_ADC.h **** *
   5:Generated_Source\PSoC6/Batteri_ADC.h **** * \brief
   6:Generated_Source\PSoC6/Batteri_ADC.h **** * Provides the source code to the API for the Batteri_ADC Component.
   7:Generated_Source\PSoC6/Batteri_ADC.h **** *
   8:Generated_Source\PSoC6/Batteri_ADC.h **** ********************************************************************************
   9:Generated_Source\PSoC6/Batteri_ADC.h **** * \copyright
  10:Generated_Source\PSoC6/Batteri_ADC.h **** * (c) 2017-2018, Cypress Semiconductor Corporation. All rights reserved.
  11:Generated_Source\PSoC6/Batteri_ADC.h **** * This software, including source code, documentation and related
  12:Generated_Source\PSoC6/Batteri_ADC.h **** * materials ("Software"), is owned by Cypress Semiconductor
  13:Generated_Source\PSoC6/Batteri_ADC.h **** * Corporation ("Cypress") and is protected by and subject to worldwide
  14:Generated_Source\PSoC6/Batteri_ADC.h **** * patent protection (United States and foreign), United States copyright
  15:Generated_Source\PSoC6/Batteri_ADC.h **** * laws and international treaty provisions. Therefore, you may use this
  16:Generated_Source\PSoC6/Batteri_ADC.h **** * Software only as provided in the license agreement accompanying the
  17:Generated_Source\PSoC6/Batteri_ADC.h **** * software package from which you obtained this Software ("EULA").
  18:Generated_Source\PSoC6/Batteri_ADC.h **** * If no EULA applies, Cypress hereby grants you a personal, nonexclusive,
  19:Generated_Source\PSoC6/Batteri_ADC.h **** * non-transferable license to copy, modify, and compile the
  20:Generated_Source\PSoC6/Batteri_ADC.h **** * Software source code solely for use in connection with Cypress's
  21:Generated_Source\PSoC6/Batteri_ADC.h **** * integrated circuit products. Any reproduction, modification, translation,
  22:Generated_Source\PSoC6/Batteri_ADC.h **** * compilation, or representation of this Software except as specified
  23:Generated_Source\PSoC6/Batteri_ADC.h **** * above is prohibited without the express written permission of Cypress.
  24:Generated_Source\PSoC6/Batteri_ADC.h **** * Disclaimer: THIS SOFTWARE IS PROVIDED AS-IS, WITH NO
  25:Generated_Source\PSoC6/Batteri_ADC.h **** * WARRANTY OF ANY KIND, EXPRESS OR IMPLIED, INCLUDING,
  26:Generated_Source\PSoC6/Batteri_ADC.h **** * BUT NOT LIMITED TO, NONINFRINGEMENT, IMPLIED
  27:Generated_Source\PSoC6/Batteri_ADC.h **** * WARRANTIES OF MERCHANTABILITY AND FITNESS FOR A
  28:Generated_Source\PSoC6/Batteri_ADC.h **** * PARTICULAR PURPOSE. Cypress reserves the right to make
  29:Generated_Source\PSoC6/Batteri_ADC.h **** * changes to the Software without notice. Cypress does not assume any
  30:Generated_Source\PSoC6/Batteri_ADC.h **** * liability arising out of the application or use of the Software or any
  31:Generated_Source\PSoC6/Batteri_ADC.h **** * product or circuit described in the Software. Cypress does not
  32:Generated_Source\PSoC6/Batteri_ADC.h **** * authorize its products for use in any products where a malfunction or
  33:Generated_Source\PSoC6/Batteri_ADC.h **** * failure of the Cypress product may reasonably be expected to result in
  34:Generated_Source\PSoC6/Batteri_ADC.h **** * significant property damage, injury or death ("High Risk Product"). By
  35:Generated_Source\PSoC6/Batteri_ADC.h **** * including Cypress's product in a High Risk Product, the manufacturer
  36:Generated_Source\PSoC6/Batteri_ADC.h **** * of such system or application assumes all risk of such use and in doing
  37:Generated_Source\PSoC6/Batteri_ADC.h **** * so agrees to indemnify Cypress against all liability.
  38:Generated_Source\PSoC6/Batteri_ADC.h **** *******************************************************************************/
  39:Generated_Source\PSoC6/Batteri_ADC.h **** #if !defined(CY_Batteri_ADC_H)
  40:Generated_Source\PSoC6/Batteri_ADC.h **** #define CY_Batteri_ADC_H
  41:Generated_Source\PSoC6/Batteri_ADC.h **** 
  42:Generated_Source\PSoC6/Batteri_ADC.h **** #include <cy_device_headers.h>
  43:Generated_Source\PSoC6/Batteri_ADC.h **** #include <sar/cy_sar.h>
  44:Generated_Source\PSoC6/Batteri_ADC.h **** 
  45:Generated_Source\PSoC6/Batteri_ADC.h **** #define Batteri_ADC_VREF_ROUTED                  ((0) == 1u)
  46:Generated_Source\PSoC6/Batteri_ADC.h **** #if (Batteri_ADC_VREF_ROUTED)
  47:Generated_Source\PSoC6/Batteri_ADC.h **** #include "Batteri_ADC_vrefAMux.h"
  48:Generated_Source\PSoC6/Batteri_ADC.h **** #endif
  49:Generated_Source\PSoC6/Batteri_ADC.h **** 
ARM GAS  C:\Users\cring\AppData\Local\Temp\ccGHmfvv.s 			page 3


  50:Generated_Source\PSoC6/Batteri_ADC.h **** #define Batteri_ADC_CLOCK_INTERNAL               ((1) == 1u)
  51:Generated_Source\PSoC6/Batteri_ADC.h **** #if (Batteri_ADC_CLOCK_INTERNAL)
  52:Generated_Source\PSoC6/Batteri_ADC.h **** #include "Batteri_ADC_intSarClock.h"
  53:Generated_Source\PSoC6/Batteri_ADC.h **** #endif /* Batteri_ADC_CLOCK_INTERNAL */
  54:Generated_Source\PSoC6/Batteri_ADC.h **** 
  55:Generated_Source\PSoC6/Batteri_ADC.h **** /**
  56:Generated_Source\PSoC6/Batteri_ADC.h **** * \addtogroup group_structures
  57:Generated_Source\PSoC6/Batteri_ADC.h **** *
  58:Generated_Source\PSoC6/Batteri_ADC.h **** */
  59:Generated_Source\PSoC6/Batteri_ADC.h **** typedef struct
  60:Generated_Source\PSoC6/Batteri_ADC.h **** {
  61:Generated_Source\PSoC6/Batteri_ADC.h ****     uint32_t channelBase;                   /* Start of channels for the configuration */
  62:Generated_Source\PSoC6/Batteri_ADC.h ****     uint32_t numChannels;                   /* Number of channels in the configuration */
  63:Generated_Source\PSoC6/Batteri_ADC.h ****     const cy_stc_sar_config_t *hwConfigStc; /* PDL structure */
  64:Generated_Source\PSoC6/Batteri_ADC.h ****     uint32_t miscConfig;                    /* Miscellaneous configuration bits broken down as foll
  65:Generated_Source\PSoC6/Batteri_ADC.h ****                                             [0] - Freerunning: Set if the sample mode is freerunnin
  66:Generated_Source\PSoC6/Batteri_ADC.h ****                                             [2] - Mux Switch 0: Set when VSSA is used for the neg i
  67:Generated_Source\PSoC6/Batteri_ADC.h ****                                             */
  68:Generated_Source\PSoC6/Batteri_ADC.h **** #if (Batteri_ADC_CLOCK_INTERNAL)
  69:Generated_Source\PSoC6/Batteri_ADC.h ****     uint32_t clkDivider;                    /* Clock divider */
  70:Generated_Source\PSoC6/Batteri_ADC.h **** #endif /* Batteri_ADC_CLOCK_INTERNAL */
  71:Generated_Source\PSoC6/Batteri_ADC.h **** 
  72:Generated_Source\PSoC6/Batteri_ADC.h **** } Batteri_ADC_CONFIG_STRUCT;
  73:Generated_Source\PSoC6/Batteri_ADC.h **** /** @} structures */
  74:Generated_Source\PSoC6/Batteri_ADC.h **** 
  75:Generated_Source\PSoC6/Batteri_ADC.h **** /*******************************************************************************
  76:Generated_Source\PSoC6/Batteri_ADC.h **** * Function Prototypes
  77:Generated_Source\PSoC6/Batteri_ADC.h **** *******************************************************************************/
  78:Generated_Source\PSoC6/Batteri_ADC.h **** void Batteri_ADC_SelectConfig(uint32_t config, uint32_t restart);
  79:Generated_Source\PSoC6/Batteri_ADC.h **** void Batteri_ADC_InitConfig(const Batteri_ADC_CONFIG_STRUCT *config);
  80:Generated_Source\PSoC6/Batteri_ADC.h **** void Batteri_ADC_Init(void);
  81:Generated_Source\PSoC6/Batteri_ADC.h **** __STATIC_INLINE void Batteri_ADC_Enable(void);
  82:Generated_Source\PSoC6/Batteri_ADC.h **** 
  83:Generated_Source\PSoC6/Batteri_ADC.h **** /**
  84:Generated_Source\PSoC6/Batteri_ADC.h **** * \addtogroup group_general
  85:Generated_Source\PSoC6/Batteri_ADC.h **** * @{
  86:Generated_Source\PSoC6/Batteri_ADC.h **** */
  87:Generated_Source\PSoC6/Batteri_ADC.h **** void Batteri_ADC_Start(void);
  88:Generated_Source\PSoC6/Batteri_ADC.h **** void Batteri_ADC_StartEx(cy_israddress userIsr);
  89:Generated_Source\PSoC6/Batteri_ADC.h **** __STATIC_INLINE void Batteri_ADC_Stop(void);
  90:Generated_Source\PSoC6/Batteri_ADC.h **** void Batteri_ADC_StartConvert(void);
  91:Generated_Source\PSoC6/Batteri_ADC.h **** __STATIC_INLINE void Batteri_ADC_StopConvert(void);
  92:Generated_Source\PSoC6/Batteri_ADC.h **** void Batteri_ADC_SetConvertMode(cy_en_sar_start_convert_sel_t mode);
  93:Generated_Source\PSoC6/Batteri_ADC.h **** void Batteri_ADC_SetEosMask(uint32_t mask);
  94:Generated_Source\PSoC6/Batteri_ADC.h **** uint32_t Batteri_ADC_IsEndConversion(cy_en_sar_return_mode_t retMode);
  95:Generated_Source\PSoC6/Batteri_ADC.h **** __STATIC_INLINE int16_t Batteri_ADC_GetResult16(uint32_t chan);
  96:Generated_Source\PSoC6/Batteri_ADC.h **** __STATIC_INLINE int32_t Batteri_ADC_GetResult32(uint32_t chan);
  97:Generated_Source\PSoC6/Batteri_ADC.h **** __STATIC_INLINE void Batteri_ADC_SetLowLimit(uint32_t lowLimit);
  98:Generated_Source\PSoC6/Batteri_ADC.h **** __STATIC_INLINE void Batteri_ADC_SetHighLimit(uint32_t highLimit);
  99:Generated_Source\PSoC6/Batteri_ADC.h **** __STATIC_INLINE void Batteri_ADC_SetLimitMask(uint32_t limitMask);
 100:Generated_Source\PSoC6/Batteri_ADC.h **** __STATIC_INLINE void Batteri_ADC_SetSatMask(uint32_t satMask);
 101:Generated_Source\PSoC6/Batteri_ADC.h **** __STATIC_INLINE cy_en_sar_status_t Batteri_ADC_SetOffset(uint32_t chan, int16_t offset);
 102:Generated_Source\PSoC6/Batteri_ADC.h **** __STATIC_INLINE cy_en_sar_status_t Batteri_ADC_SetGain(uint32_t chan, int32_t adcGain);
 103:Generated_Source\PSoC6/Batteri_ADC.h **** __STATIC_INLINE float32_t Batteri_ADC_CountsTo_Volts(uint32_t chan, int16_t adcCounts);
 104:Generated_Source\PSoC6/Batteri_ADC.h **** __STATIC_INLINE int16_t Batteri_ADC_CountsTo_mVolts(uint32_t chan, int16_t adcCounts);
 105:Generated_Source\PSoC6/Batteri_ADC.h **** __STATIC_INLINE int32_t Batteri_ADC_CountsTo_uVolts(uint32_t chan, int16_t adcCounts);
 106:Generated_Source\PSoC6/Batteri_ADC.h **** 
ARM GAS  C:\Users\cring\AppData\Local\Temp\ccGHmfvv.s 			page 4


 107:Generated_Source\PSoC6/Batteri_ADC.h **** /** @} general */
 108:Generated_Source\PSoC6/Batteri_ADC.h **** 
 109:Generated_Source\PSoC6/Batteri_ADC.h **** void Batteri_ADC_SetChanMask(uint32_t enableMask);
 110:Generated_Source\PSoC6/Batteri_ADC.h **** 
 111:Generated_Source\PSoC6/Batteri_ADC.h **** /**
 112:Generated_Source\PSoC6/Batteri_ADC.h **** * \addtogroup group_power
 113:Generated_Source\PSoC6/Batteri_ADC.h **** * @{
 114:Generated_Source\PSoC6/Batteri_ADC.h **** */
 115:Generated_Source\PSoC6/Batteri_ADC.h **** __STATIC_INLINE void Batteri_ADC_Sleep(void);
 116:Generated_Source\PSoC6/Batteri_ADC.h **** __STATIC_INLINE void Batteri_ADC_Wakeup(void);
 117:Generated_Source\PSoC6/Batteri_ADC.h **** 
 118:Generated_Source\PSoC6/Batteri_ADC.h **** /** @} power */
 119:Generated_Source\PSoC6/Batteri_ADC.h **** 
 120:Generated_Source\PSoC6/Batteri_ADC.h **** /**
 121:Generated_Source\PSoC6/Batteri_ADC.h **** * \addtogroup group_interrupt
 122:Generated_Source\PSoC6/Batteri_ADC.h **** * @{
 123:Generated_Source\PSoC6/Batteri_ADC.h **** */
 124:Generated_Source\PSoC6/Batteri_ADC.h **** void Batteri_ADC_ISR(void);
 125:Generated_Source\PSoC6/Batteri_ADC.h **** void Batteri_ADC_IRQ_Enable(void);
 126:Generated_Source\PSoC6/Batteri_ADC.h **** void Batteri_ADC_IRQ_Disable(void);
 127:Generated_Source\PSoC6/Batteri_ADC.h **** 
 128:Generated_Source\PSoC6/Batteri_ADC.h **** /** @} interrupt */
 129:Generated_Source\PSoC6/Batteri_ADC.h **** 
 130:Generated_Source\PSoC6/Batteri_ADC.h **** /*******************************************************************************
 131:Generated_Source\PSoC6/Batteri_ADC.h ****                                   Parameters
 132:Generated_Source\PSoC6/Batteri_ADC.h **** The parameters that are set in the customizer are redefined as constants here.
 133:Generated_Source\PSoC6/Batteri_ADC.h **** *******************************************************************************/
 134:Generated_Source\PSoC6/Batteri_ADC.h **** 
 135:Generated_Source\PSoC6/Batteri_ADC.h **** /*  Sample Mode setting constants */
 136:Generated_Source\PSoC6/Batteri_ADC.h **** #define Batteri_ADC_TOTAL_CONFIGS                (1ul)
 137:Generated_Source\PSoC6/Batteri_ADC.h **** 
 138:Generated_Source\PSoC6/Batteri_ADC.h **** /* ************************************************************************** */
 139:Generated_Source\PSoC6/Batteri_ADC.h **** /* Begin configuration 0 customizer defines                                   */
 140:Generated_Source\PSoC6/Batteri_ADC.h **** /* ************************************************************************** */
 141:Generated_Source\PSoC6/Batteri_ADC.h **** 
 142:Generated_Source\PSoC6/Batteri_ADC.h **** #define Batteri_ADC_CFG0_SAMPLE_RATE             (100000)
 143:Generated_Source\PSoC6/Batteri_ADC.h **** #define Batteri_ADC_CFG0_CHANNEL_BASE            (0u)
 144:Generated_Source\PSoC6/Batteri_ADC.h **** #define Batteri_ADC_CFG0_CHANNEL_COUNT           (1u)
 145:Generated_Source\PSoC6/Batteri_ADC.h **** #define Batteri_ADC_CFG0_VREF_SEL_MASK           (0x70u)
 146:Generated_Source\PSoC6/Batteri_ADC.h **** #define Batteri_ADC_CFG0_NOMINAL_CLOCK_FREQ      (16666666u)
 147:Generated_Source\PSoC6/Batteri_ADC.h **** #define Batteri_ADC_CFG0_CHANNEL_EN              (0x1u)
 148:Generated_Source\PSoC6/Batteri_ADC.h **** 
 149:Generated_Source\PSoC6/Batteri_ADC.h **** /* Sample Control Register */
 150:Generated_Source\PSoC6/Batteri_ADC.h **** #define Batteri_ADC_CFG0_SINGLE_ENDED_FORMAT     (0uL)
 151:Generated_Source\PSoC6/Batteri_ADC.h **** #define Batteri_ADC_CFG0_DIFFERENTIAL_FORMAT     (0uL)
 152:Generated_Source\PSoC6/Batteri_ADC.h **** #define Batteri_ADC_CFG0_SAMPLES_AVERAGED        (1uL)
 153:Generated_Source\PSoC6/Batteri_ADC.h **** #define Batteri_ADC_CFG0_RANGE_INTR_MASK         (0x0u)
 154:Generated_Source\PSoC6/Batteri_ADC.h **** #define Batteri_ADC_CFG0_SATURATE_INTR_MASK      (0x0u)
 155:Generated_Source\PSoC6/Batteri_ADC.h **** #define Batteri_ADC_CFG0_VNEG_INPUT_SEL          (7)
 156:Generated_Source\PSoC6/Batteri_ADC.h **** #define Batteri_ADC_CFG0_SINGLE_PRESENT          (1)
 157:Generated_Source\PSoC6/Batteri_ADC.h **** #define Batteri_ADC_CFG0_VREF_MV_VALUE           (3300)
 158:Generated_Source\PSoC6/Batteri_ADC.h **** #define Batteri_ADC_CFG0_APERTURE_TIME0          (28uL)
 159:Generated_Source\PSoC6/Batteri_ADC.h **** #define Batteri_ADC_CFG0_APERTURE_TIME1          (2uL)
 160:Generated_Source\PSoC6/Batteri_ADC.h **** #define Batteri_ADC_CFG0_APERTURE_TIME2          (2uL)
 161:Generated_Source\PSoC6/Batteri_ADC.h **** #define Batteri_ADC_CFG0_APERTURE_TIME3          (2uL)
 162:Generated_Source\PSoC6/Batteri_ADC.h **** #define Batteri_ADC_CFG0_FREERUNNING             (1u)
 163:Generated_Source\PSoC6/Batteri_ADC.h **** #define Batteri_ADC_CFG0_AVGERAGING_MODE         (1uL)
ARM GAS  C:\Users\cring\AppData\Local\Temp\ccGHmfvv.s 			page 5


 164:Generated_Source\PSoC6/Batteri_ADC.h **** #define Batteri_ADC_CFG0_LOW_LIMIT               (0u)
 165:Generated_Source\PSoC6/Batteri_ADC.h **** #define Batteri_ADC_CFG0_HIGH_LIMIT              (3839u)
 166:Generated_Source\PSoC6/Batteri_ADC.h **** #define Batteri_ADC_CFG0_RANGE_COND              (0uL)
 167:Generated_Source\PSoC6/Batteri_ADC.h **** #define Batteri_ADC_CFG0_USE_SOC                 (0uL)
 168:Generated_Source\PSoC6/Batteri_ADC.h **** #define Batteri_ADC_CFG0_VREF_PWR                (2uL)
 169:Generated_Source\PSoC6/Batteri_ADC.h **** #define Batteri_ADC_CFG0_COMP_PWR                (3uL)
 170:Generated_Source\PSoC6/Batteri_ADC.h **** #define Batteri_ADC_CFG0_COMP_DLY                (3uL)
 171:Generated_Source\PSoC6/Batteri_ADC.h **** 
 172:Generated_Source\PSoC6/Batteri_ADC.h **** /* Clock parameters*/
 173:Generated_Source\PSoC6/Batteri_ADC.h **** #if (Batteri_ADC_CLOCK_INTERNAL)
 174:Generated_Source\PSoC6/Batteri_ADC.h ****     #define Batteri_ADC_CFG0_CLOCKDIVIDER        (((CYDEV_CLK_PERICLK__HZ) / (Batteri_ADC_CFG0_NOMI
 175:Generated_Source\PSoC6/Batteri_ADC.h **** #endif /* (Batteri_ADC_CLOCK_INTERNAL) */
 176:Generated_Source\PSoC6/Batteri_ADC.h **** 
 177:Generated_Source\PSoC6/Batteri_ADC.h **** /* ************************************************************************** */
 178:Generated_Source\PSoC6/Batteri_ADC.h **** /* End configuration 0 customizer defines                                     */
 179:Generated_Source\PSoC6/Batteri_ADC.h **** /* ************************************************************************** */
 180:Generated_Source\PSoC6/Batteri_ADC.h **** 
 181:Generated_Source\PSoC6/Batteri_ADC.h **** /* ************************************************************************** */
 182:Generated_Source\PSoC6/Batteri_ADC.h **** /* Begin configuration 1 customizer defines                                   */
 183:Generated_Source\PSoC6/Batteri_ADC.h **** /* ************************************************************************** */
 184:Generated_Source\PSoC6/Batteri_ADC.h **** 
 185:Generated_Source\PSoC6/Batteri_ADC.h **** #if(Batteri_ADC_TOTAL_CONFIGS > 1)
 186:Generated_Source\PSoC6/Batteri_ADC.h ****     #define Batteri_ADC_CFG1_SAMPLE_RATE             ()
 187:Generated_Source\PSoC6/Batteri_ADC.h ****     #define Batteri_ADC_CFG1_CHANNEL_BASE            (u)
 188:Generated_Source\PSoC6/Batteri_ADC.h ****     #define Batteri_ADC_CFG1_CHANNEL_COUNT           (u)
 189:Generated_Source\PSoC6/Batteri_ADC.h ****     #define Batteri_ADC_CFG1_VREF_SEL_MASK           (u)
 190:Generated_Source\PSoC6/Batteri_ADC.h ****     #define Batteri_ADC_CFG1_NOMINAL_CLOCK_FREQ      (u)
 191:Generated_Source\PSoC6/Batteri_ADC.h ****     #define Batteri_ADC_CFG1_CHANNEL_EN              (u)
 192:Generated_Source\PSoC6/Batteri_ADC.h **** 
 193:Generated_Source\PSoC6/Batteri_ADC.h ****     /* Sample Control Register */
 194:Generated_Source\PSoC6/Batteri_ADC.h ****     #define Batteri_ADC_CFG1_SINGLE_ENDED_FORMAT     (uL)
 195:Generated_Source\PSoC6/Batteri_ADC.h ****     #define Batteri_ADC_CFG1_DIFFERENTIAL_FORMAT     (uL)
 196:Generated_Source\PSoC6/Batteri_ADC.h ****     #define Batteri_ADC_CFG1_SAMPLES_AVERAGED        (uL)
 197:Generated_Source\PSoC6/Batteri_ADC.h ****     #define Batteri_ADC_CFG1_RANGE_INTR_MASK         (u)
 198:Generated_Source\PSoC6/Batteri_ADC.h ****     #define Batteri_ADC_CFG1_SATURATE_INTR_MASK      (u)
 199:Generated_Source\PSoC6/Batteri_ADC.h ****     #define Batteri_ADC_CFG1_VNEG_INPUT_SEL          ()
 200:Generated_Source\PSoC6/Batteri_ADC.h ****     #define Batteri_ADC_CFG1_SINGLE_PRESENT          ()
 201:Generated_Source\PSoC6/Batteri_ADC.h ****     #define Batteri_ADC_CFG1_VREF_MV_VALUE           ()
 202:Generated_Source\PSoC6/Batteri_ADC.h ****     #define Batteri_ADC_CFG1_APERTURE_TIME0          (uL)
 203:Generated_Source\PSoC6/Batteri_ADC.h ****     #define Batteri_ADC_CFG1_APERTURE_TIME1          (uL)
 204:Generated_Source\PSoC6/Batteri_ADC.h ****     #define Batteri_ADC_CFG1_APERTURE_TIME2          (uL)
 205:Generated_Source\PSoC6/Batteri_ADC.h ****     #define Batteri_ADC_CFG1_APERTURE_TIME3          (uL)
 206:Generated_Source\PSoC6/Batteri_ADC.h ****     #define Batteri_ADC_CFG1_FREERUNNING             (u)
 207:Generated_Source\PSoC6/Batteri_ADC.h ****     #define Batteri_ADC_CFG1_AVGERAGING_MODE         (uL)
 208:Generated_Source\PSoC6/Batteri_ADC.h ****     #define Batteri_ADC_CFG1_LOW_LIMIT               (u)
 209:Generated_Source\PSoC6/Batteri_ADC.h ****     #define Batteri_ADC_CFG1_HIGH_LIMIT              (u)
 210:Generated_Source\PSoC6/Batteri_ADC.h ****     #define Batteri_ADC_CFG1_RANGE_COND              (uL)
 211:Generated_Source\PSoC6/Batteri_ADC.h ****     #define Batteri_ADC_CFG1_USE_SOC                 (0uL)
 212:Generated_Source\PSoC6/Batteri_ADC.h ****     #define Batteri_ADC_CFG1_VREF_PWR                (uL)
 213:Generated_Source\PSoC6/Batteri_ADC.h ****     #define Batteri_ADC_CFG1_COMP_PWR                (uL)
 214:Generated_Source\PSoC6/Batteri_ADC.h ****     #define Batteri_ADC_CFG1_COMP_DLY                (uL)
 215:Generated_Source\PSoC6/Batteri_ADC.h **** 
 216:Generated_Source\PSoC6/Batteri_ADC.h ****     /* Clock parameters*/
 217:Generated_Source\PSoC6/Batteri_ADC.h ****     #if (Batteri_ADC_CLOCK_INTERNAL)
 218:Generated_Source\PSoC6/Batteri_ADC.h ****         #define Batteri_ADC_CFG1_CLOCKDIVIDER        (((CYDEV_CLK_PERICLK__HZ) / (Batteri_ADC_CFG1_
 219:Generated_Source\PSoC6/Batteri_ADC.h ****     #endif /* (Batteri_ADC_CLOCK_INTERNAL) */
 220:Generated_Source\PSoC6/Batteri_ADC.h **** #endif /* #if(Batteri_ADC_TOTAL_CONFIGS > 1) */
ARM GAS  C:\Users\cring\AppData\Local\Temp\ccGHmfvv.s 			page 6


 221:Generated_Source\PSoC6/Batteri_ADC.h **** 
 222:Generated_Source\PSoC6/Batteri_ADC.h **** /* ************************************************************************** */
 223:Generated_Source\PSoC6/Batteri_ADC.h **** /* End configuration 1 customizer defines                                     */
 224:Generated_Source\PSoC6/Batteri_ADC.h **** /* ************************************************************************** */
 225:Generated_Source\PSoC6/Batteri_ADC.h **** 
 226:Generated_Source\PSoC6/Batteri_ADC.h **** /* ************************************************************************** */
 227:Generated_Source\PSoC6/Batteri_ADC.h **** /* Begin configuration 2 customizer defines                                         */
 228:Generated_Source\PSoC6/Batteri_ADC.h **** /* ************************************************************************** */
 229:Generated_Source\PSoC6/Batteri_ADC.h **** 
 230:Generated_Source\PSoC6/Batteri_ADC.h **** #if(Batteri_ADC_TOTAL_CONFIGS > 2)
 231:Generated_Source\PSoC6/Batteri_ADC.h ****     #define Batteri_ADC_CFG2_SAMPLE_RATE             ()
 232:Generated_Source\PSoC6/Batteri_ADC.h ****     #define Batteri_ADC_CFG2_CHANNEL_BASE            (u)
 233:Generated_Source\PSoC6/Batteri_ADC.h ****     #define Batteri_ADC_CFG2_CHANNEL_COUNT           (u)
 234:Generated_Source\PSoC6/Batteri_ADC.h ****     #define Batteri_ADC_CFG2_VREF_SEL_MASK           (u)
 235:Generated_Source\PSoC6/Batteri_ADC.h ****     #define Batteri_ADC_CFG2_NOMINAL_CLOCK_FREQ      (u)
 236:Generated_Source\PSoC6/Batteri_ADC.h ****     #define Batteri_ADC_CFG2_CHANNEL_EN              (u)
 237:Generated_Source\PSoC6/Batteri_ADC.h **** 
 238:Generated_Source\PSoC6/Batteri_ADC.h ****     /* Sample Control Register */
 239:Generated_Source\PSoC6/Batteri_ADC.h ****     #define Batteri_ADC_CFG2_SINGLE_ENDED_FORMAT     (uL)
 240:Generated_Source\PSoC6/Batteri_ADC.h ****     #define Batteri_ADC_CFG2_DIFFERENTIAL_FORMAT     (uL)
 241:Generated_Source\PSoC6/Batteri_ADC.h ****     #define Batteri_ADC_CFG2_SAMPLES_AVERAGED        (uL)
 242:Generated_Source\PSoC6/Batteri_ADC.h ****     #define Batteri_ADC_CFG2_RANGE_INTR_MASK         (u)
 243:Generated_Source\PSoC6/Batteri_ADC.h ****     #define Batteri_ADC_CFG2_SATURATE_INTR_MASK      (u)
 244:Generated_Source\PSoC6/Batteri_ADC.h ****     #define Batteri_ADC_CFG2_VNEG_INPUT_SEL          ()
 245:Generated_Source\PSoC6/Batteri_ADC.h ****     #define Batteri_ADC_CFG2_SINGLE_PRESENT          ()
 246:Generated_Source\PSoC6/Batteri_ADC.h ****     #define Batteri_ADC_CFG2_VREF_MV_VALUE           ()
 247:Generated_Source\PSoC6/Batteri_ADC.h ****     #define Batteri_ADC_CFG2_APERTURE_TIME0          (uL)
 248:Generated_Source\PSoC6/Batteri_ADC.h ****     #define Batteri_ADC_CFG2_APERTURE_TIME1          (uL)
 249:Generated_Source\PSoC6/Batteri_ADC.h ****     #define Batteri_ADC_CFG2_APERTURE_TIME2          (uL)
 250:Generated_Source\PSoC6/Batteri_ADC.h ****     #define Batteri_ADC_CFG2_APERTURE_TIME3          (uL)
 251:Generated_Source\PSoC6/Batteri_ADC.h ****     #define Batteri_ADC_CFG2_FREERUNNING             (u)
 252:Generated_Source\PSoC6/Batteri_ADC.h ****     #define Batteri_ADC_CFG2_AVGERAGING_MODE         (uL)
 253:Generated_Source\PSoC6/Batteri_ADC.h ****     #define Batteri_ADC_CFG2_LOW_LIMIT               (u)
 254:Generated_Source\PSoC6/Batteri_ADC.h ****     #define Batteri_ADC_CFG2_HIGH_LIMIT              (u)
 255:Generated_Source\PSoC6/Batteri_ADC.h ****     #define Batteri_ADC_CFG2_RANGE_COND              (uL)
 256:Generated_Source\PSoC6/Batteri_ADC.h ****     #define Batteri_ADC_CFG2_USE_SOC                 (0uL)
 257:Generated_Source\PSoC6/Batteri_ADC.h ****     #define Batteri_ADC_CFG2_VREF_PWR                (uL)
 258:Generated_Source\PSoC6/Batteri_ADC.h ****     #define Batteri_ADC_CFG2_COMP_PWR                (uL)
 259:Generated_Source\PSoC6/Batteri_ADC.h ****     #define Batteri_ADC_CFG2_COMP_DLY                (uL)
 260:Generated_Source\PSoC6/Batteri_ADC.h **** 
 261:Generated_Source\PSoC6/Batteri_ADC.h ****     /* Clock parameters*/
 262:Generated_Source\PSoC6/Batteri_ADC.h ****     #if (Batteri_ADC_CLOCK_INTERNAL)
 263:Generated_Source\PSoC6/Batteri_ADC.h ****         #define Batteri_ADC_CFG2_CLOCKDIVIDER        (((CYDEV_CLK_PERICLK__HZ) / (Batteri_ADC_CFG2_
 264:Generated_Source\PSoC6/Batteri_ADC.h ****     #endif /* (Batteri_ADC_CLOCK_INTERNAL) */
 265:Generated_Source\PSoC6/Batteri_ADC.h **** #endif /* (Batteri_ADC_TOTAL_CONFIGS > 2) */
 266:Generated_Source\PSoC6/Batteri_ADC.h **** 
 267:Generated_Source\PSoC6/Batteri_ADC.h **** 
 268:Generated_Source\PSoC6/Batteri_ADC.h **** /* ************************************************************************** */
 269:Generated_Source\PSoC6/Batteri_ADC.h **** /* End configuration 2 customizer defines                                     */
 270:Generated_Source\PSoC6/Batteri_ADC.h **** /* ************************************************************************** */
 271:Generated_Source\PSoC6/Batteri_ADC.h **** 
 272:Generated_Source\PSoC6/Batteri_ADC.h **** /* ************************************************************************** */
 273:Generated_Source\PSoC6/Batteri_ADC.h **** /* Begin configuration 3 customizer defines                                   */
 274:Generated_Source\PSoC6/Batteri_ADC.h **** /* ************************************************************************** */
 275:Generated_Source\PSoC6/Batteri_ADC.h **** #if(Batteri_ADC_TOTAL_CONFIGS > 3)
 276:Generated_Source\PSoC6/Batteri_ADC.h ****     #define Batteri_ADC_CFG3_SAMPLE_RATE             ()
 277:Generated_Source\PSoC6/Batteri_ADC.h ****     #define Batteri_ADC_CFG3_CHANNEL_BASE            (u)
ARM GAS  C:\Users\cring\AppData\Local\Temp\ccGHmfvv.s 			page 7


 278:Generated_Source\PSoC6/Batteri_ADC.h ****     #define Batteri_ADC_CFG3_CHANNEL_COUNT           (u)
 279:Generated_Source\PSoC6/Batteri_ADC.h ****     #define Batteri_ADC_CFG3_VREF_SEL_MASK           (u)
 280:Generated_Source\PSoC6/Batteri_ADC.h ****     #define Batteri_ADC_CFG3_NOMINAL_CLOCK_FREQ      (u)
 281:Generated_Source\PSoC6/Batteri_ADC.h ****     #define Batteri_ADC_CFG3_CHANNEL_EN              (u)
 282:Generated_Source\PSoC6/Batteri_ADC.h **** 
 283:Generated_Source\PSoC6/Batteri_ADC.h ****     /* Sample Control Register */
 284:Generated_Source\PSoC6/Batteri_ADC.h ****     #define Batteri_ADC_CFG3_SINGLE_ENDED_FORMAT     (uL)
 285:Generated_Source\PSoC6/Batteri_ADC.h ****     #define Batteri_ADC_CFG3_DIFFERENTIAL_FORMAT     (uL)
 286:Generated_Source\PSoC6/Batteri_ADC.h ****     #define Batteri_ADC_CFG3_SAMPLES_AVERAGED        (uL)
 287:Generated_Source\PSoC6/Batteri_ADC.h ****     #define Batteri_ADC_CFG3_RANGE_INTR_MASK         (u)
 288:Generated_Source\PSoC6/Batteri_ADC.h ****     #define Batteri_ADC_CFG3_SATURATE_INTR_MASK      (u)
 289:Generated_Source\PSoC6/Batteri_ADC.h ****     #define Batteri_ADC_CFG3_VNEG_INPUT_SEL          ()
 290:Generated_Source\PSoC6/Batteri_ADC.h ****     #define Batteri_ADC_CFG3_SINGLE_PRESENT          ()
 291:Generated_Source\PSoC6/Batteri_ADC.h ****     #define Batteri_ADC_CFG3_VREF_MV_VALUE           ()
 292:Generated_Source\PSoC6/Batteri_ADC.h ****     #define Batteri_ADC_CFG3_APERTURE_TIME0          (uL)
 293:Generated_Source\PSoC6/Batteri_ADC.h ****     #define Batteri_ADC_CFG3_APERTURE_TIME1          (uL)
 294:Generated_Source\PSoC6/Batteri_ADC.h ****     #define Batteri_ADC_CFG3_APERTURE_TIME2          (uL)
 295:Generated_Source\PSoC6/Batteri_ADC.h ****     #define Batteri_ADC_CFG3_APERTURE_TIME3          (uL)
 296:Generated_Source\PSoC6/Batteri_ADC.h ****     #define Batteri_ADC_CFG3_FREERUNNING             (u)
 297:Generated_Source\PSoC6/Batteri_ADC.h ****     #define Batteri_ADC_CFG3_AVGERAGING_MODE         (uL)
 298:Generated_Source\PSoC6/Batteri_ADC.h ****     #define Batteri_ADC_CFG3_LOW_LIMIT               (u)
 299:Generated_Source\PSoC6/Batteri_ADC.h ****     #define Batteri_ADC_CFG3_HIGH_LIMIT              (u)
 300:Generated_Source\PSoC6/Batteri_ADC.h ****     #define Batteri_ADC_CFG3_RANGE_COND              (uL)
 301:Generated_Source\PSoC6/Batteri_ADC.h ****     #define Batteri_ADC_CFG3_USE_SOC                 (0uL)
 302:Generated_Source\PSoC6/Batteri_ADC.h ****     #define Batteri_ADC_CFG3_VREF_PWR                (uL)
 303:Generated_Source\PSoC6/Batteri_ADC.h ****     #define Batteri_ADC_CFG3_COMP_PWR                (uL)
 304:Generated_Source\PSoC6/Batteri_ADC.h ****     #define Batteri_ADC_CFG3_COMP_DLY                (uL)
 305:Generated_Source\PSoC6/Batteri_ADC.h **** 
 306:Generated_Source\PSoC6/Batteri_ADC.h ****     /* Clock parameters*/
 307:Generated_Source\PSoC6/Batteri_ADC.h ****     #if (Batteri_ADC_CLOCK_INTERNAL)
 308:Generated_Source\PSoC6/Batteri_ADC.h ****         #define Batteri_ADC_CFG3_CLOCKDIVIDER        (((CYDEV_CLK_PERICLK__HZ) / (Batteri_ADC_CFG3_
 309:Generated_Source\PSoC6/Batteri_ADC.h ****     #endif /* (Batteri_ADC_CLOCK_INTERNAL) */
 310:Generated_Source\PSoC6/Batteri_ADC.h **** #endif /* (Batteri_ADC_TOTAL_CONFIGS > 3) */
 311:Generated_Source\PSoC6/Batteri_ADC.h **** 
 312:Generated_Source\PSoC6/Batteri_ADC.h **** /* ************************************************************************** */
 313:Generated_Source\PSoC6/Batteri_ADC.h **** /* End configuration 3 customizer defines                                     */
 314:Generated_Source\PSoC6/Batteri_ADC.h **** /* ************************************************************************** */
 315:Generated_Source\PSoC6/Batteri_ADC.h **** 
 316:Generated_Source\PSoC6/Batteri_ADC.h **** #define Batteri_ADC_DEFAULT_SAMPLE_MODE_SEL      (0u)
 317:Generated_Source\PSoC6/Batteri_ADC.h **** #define Batteri_ADC_FREERUNNING                  (1u)
 318:Generated_Source\PSoC6/Batteri_ADC.h **** #define Batteri_ADC_HARDWARESOC                  (1u)
 319:Generated_Source\PSoC6/Batteri_ADC.h **** #define Batteri_ADC_NEG_SEL_VSSA_KELVIN          (0x0uL)
 320:Generated_Source\PSoC6/Batteri_ADC.h **** #define Batteri_ADC_NEG_SEL_VREF                 (0x7uL)
 321:Generated_Source\PSoC6/Batteri_ADC.h **** #define Batteri_ADC_PWR_CTRL_VREF_NORMAL_PWR     (0x0uL)
 322:Generated_Source\PSoC6/Batteri_ADC.h **** 
 323:Generated_Source\PSoC6/Batteri_ADC.h **** /** Batteri_ADC_TOTAL_CHANNELS_NUM
 324:Generated_Source\PSoC6/Batteri_ADC.h **** * This constant represents the number of input channels available for scanning.
 325:Generated_Source\PSoC6/Batteri_ADC.h **** */
 326:Generated_Source\PSoC6/Batteri_ADC.h **** #define Batteri_ADC_TOTAL_CHANNELS_NUM           (1u)
 327:Generated_Source\PSoC6/Batteri_ADC.h **** 
 328:Generated_Source\PSoC6/Batteri_ADC.h **** /*******************************************************************************
 329:Generated_Source\PSoC6/Batteri_ADC.h **** *    Variables with External Linkage
 330:Generated_Source\PSoC6/Batteri_ADC.h **** *******************************************************************************/
 331:Generated_Source\PSoC6/Batteri_ADC.h **** /**
 332:Generated_Source\PSoC6/Batteri_ADC.h **** * \addtogroup group_globals
 333:Generated_Source\PSoC6/Batteri_ADC.h **** * Globals are noted in the descriptions of the functions that use globals.
 334:Generated_Source\PSoC6/Batteri_ADC.h **** * They are marked with (R), (W), or (RW) noting whether the variable is read,
ARM GAS  C:\Users\cring\AppData\Local\Temp\ccGHmfvv.s 			page 8


 335:Generated_Source\PSoC6/Batteri_ADC.h **** * write, or read/write.
 336:Generated_Source\PSoC6/Batteri_ADC.h **** * @{
 337:Generated_Source\PSoC6/Batteri_ADC.h **** */
 338:Generated_Source\PSoC6/Batteri_ADC.h **** 
 339:Generated_Source\PSoC6/Batteri_ADC.h **** /** Batteri_ADC_initVar
 340:Generated_Source\PSoC6/Batteri_ADC.h **** * The Batteri_ADC_initVar variable is used to indicate
 341:Generated_Source\PSoC6/Batteri_ADC.h **** * initial configuration of this component. The variable is initialized to zero and
 342:Generated_Source\PSoC6/Batteri_ADC.h **** * set to 1 the first time Batteri_ADC_Start() is called. This allows for
 343:Generated_Source\PSoC6/Batteri_ADC.h **** * component initialization without reinitialization in all subsequent calls to the
 344:Generated_Source\PSoC6/Batteri_ADC.h **** * Batteri_ADC_Start() routine.
 345:Generated_Source\PSoC6/Batteri_ADC.h **** *
 346:Generated_Source\PSoC6/Batteri_ADC.h **** * If reinitialization of the component is required, then the Batteri_ADC_Init() function
 347:Generated_Source\PSoC6/Batteri_ADC.h **** * can be called before the Batteri_ADC_Start() or Batteri_ADC_Enable()
 348:Generated_Source\PSoC6/Batteri_ADC.h **** * functions.
 349:Generated_Source\PSoC6/Batteri_ADC.h **** */
 350:Generated_Source\PSoC6/Batteri_ADC.h **** extern uint8_t Batteri_ADC_initVar;
 351:Generated_Source\PSoC6/Batteri_ADC.h **** extern uint8_t Batteri_ADC_selected;
 352:Generated_Source\PSoC6/Batteri_ADC.h **** extern uint32_t Batteri_ADC_currentConfig;
 353:Generated_Source\PSoC6/Batteri_ADC.h **** 
 354:Generated_Source\PSoC6/Batteri_ADC.h **** #define Batteri_ADC_INIT_VAR_INIT_FLAG     (0x01u)
 355:Generated_Source\PSoC6/Batteri_ADC.h **** 
 356:Generated_Source\PSoC6/Batteri_ADC.h **** extern const Batteri_ADC_CONFIG_STRUCT Batteri_ADC_allConfigs[Batteri_ADC_TOTAL_CONFIGS];
 357:Generated_Source\PSoC6/Batteri_ADC.h **** 
 358:Generated_Source\PSoC6/Batteri_ADC.h **** /* SysPm callback structure for deep sleep entry and exit.
 359:Generated_Source\PSoC6/Batteri_ADC.h ****  * Call the Cy_SysPm_RegisterCallback function with this
 360:Generated_Source\PSoC6/Batteri_ADC.h ****  * structure before calling Cy_SysPm_DeepSleep.
 361:Generated_Source\PSoC6/Batteri_ADC.h **** */
 362:Generated_Source\PSoC6/Batteri_ADC.h **** extern cy_stc_syspm_callback_t Batteri_ADC_DeepSleepCallbackStruct;
 363:Generated_Source\PSoC6/Batteri_ADC.h **** 
 364:Generated_Source\PSoC6/Batteri_ADC.h **** /** @} globals */
 365:Generated_Source\PSoC6/Batteri_ADC.h **** 
 366:Generated_Source\PSoC6/Batteri_ADC.h **** /* ************************************************************************** */
 367:Generated_Source\PSoC6/Batteri_ADC.h **** /* *******************Global MUX_SWITCH0 Definitions ************************ */
 368:Generated_Source\PSoC6/Batteri_ADC.h **** /* ************************************************************************** */
 369:Generated_Source\PSoC6/Batteri_ADC.h **** #if(Batteri_ADC_CFG0_VNEG_INPUT_SEL == Batteri_ADC_NEG_SEL_VSSA_KELVIN)
 370:Generated_Source\PSoC6/Batteri_ADC.h ****     /* Do not connect VSSA to VMINUS when one channel in differential mode used */
 371:Generated_Source\PSoC6/Batteri_ADC.h ****     #if((Batteri_ADC_TOTAL_CHANNELS_NUM == 1u) && (Batteri_ADC_CFG0_SINGLE_PRESENT == 0u))
 372:Generated_Source\PSoC6/Batteri_ADC.h ****         #define Batteri_ADC_MUX_SWITCH0_INIT      0u
 373:Generated_Source\PSoC6/Batteri_ADC.h ****     #else    /* multiple channels or one single ended channel */
 374:Generated_Source\PSoC6/Batteri_ADC.h ****         #define Batteri_ADC_MUX_SWITCH0_INIT      1u
 375:Generated_Source\PSoC6/Batteri_ADC.h ****     #endif /* ((Batteri_ADC_TOTAL_CHANNELS_NUM == 1u) && (Batteri_ADC_CFG0_SINGLE_PRESENT == 0u)) *
 376:Generated_Source\PSoC6/Batteri_ADC.h **** #else
 377:Generated_Source\PSoC6/Batteri_ADC.h ****     #define Batteri_ADC_MUX_SWITCH0_INIT          0u
 378:Generated_Source\PSoC6/Batteri_ADC.h **** #endif /* Batteri_ADC_CFG0_VNEG_INPUT_SEL == Batteri_ADC_NEG_SEL_VSSA_KELVIN */
 379:Generated_Source\PSoC6/Batteri_ADC.h **** 
 380:Generated_Source\PSoC6/Batteri_ADC.h **** /* ************************************************************************** */
 381:Generated_Source\PSoC6/Batteri_ADC.h **** /* Begin configuration 0 calculated defines                                   */
 382:Generated_Source\PSoC6/Batteri_ADC.h **** /* ************************************************************************** */
 383:Generated_Source\PSoC6/Batteri_ADC.h **** #define Batteri_ADC_CFG0_SAMPLE_TIME01_INIT \
 384:Generated_Source\PSoC6/Batteri_ADC.h ****         ((Batteri_ADC_CFG0_APERTURE_TIME0 \
 385:Generated_Source\PSoC6/Batteri_ADC.h ****         << SAR_SAMPLE_TIME01_SAMPLE_TIME0_Pos) \
 386:Generated_Source\PSoC6/Batteri_ADC.h ****         | (Batteri_ADC_CFG0_APERTURE_TIME1 \
 387:Generated_Source\PSoC6/Batteri_ADC.h ****         << SAR_SAMPLE_TIME01_SAMPLE_TIME1_Pos))
 388:Generated_Source\PSoC6/Batteri_ADC.h **** 
 389:Generated_Source\PSoC6/Batteri_ADC.h **** #define Batteri_ADC_CFG0_SAMPLE_TIME23_INIT \
 390:Generated_Source\PSoC6/Batteri_ADC.h ****         ((Batteri_ADC_CFG0_APERTURE_TIME2 \
 391:Generated_Source\PSoC6/Batteri_ADC.h ****         << SAR_SAMPLE_TIME23_SAMPLE_TIME2_Pos) \
ARM GAS  C:\Users\cring\AppData\Local\Temp\ccGHmfvv.s 			page 9


 392:Generated_Source\PSoC6/Batteri_ADC.h ****         | (Batteri_ADC_CFG0_APERTURE_TIME3 \
 393:Generated_Source\PSoC6/Batteri_ADC.h ****         << SAR_SAMPLE_TIME23_SAMPLE_TIME3_Pos))
 394:Generated_Source\PSoC6/Batteri_ADC.h **** 
 395:Generated_Source\PSoC6/Batteri_ADC.h **** /* Enable soc pin if used */
 396:Generated_Source\PSoC6/Batteri_ADC.h **** #define Batteri_ADC_CFG0_DSI_TRIGGER_EN_INIT \
 397:Generated_Source\PSoC6/Batteri_ADC.h ****         (Batteri_ADC_CFG0_USE_SOC \
 398:Generated_Source\PSoC6/Batteri_ADC.h ****         << SAR_SAMPLE_CTRL_DSI_TRIGGER_EN_Pos)
 399:Generated_Source\PSoC6/Batteri_ADC.h **** 
 400:Generated_Source\PSoC6/Batteri_ADC.h **** /* Set soc operation to edge or level based on sample mode */
 401:Generated_Source\PSoC6/Batteri_ADC.h **** #if(Batteri_ADC_CFG0_FREERUNNING == Batteri_ADC_FREERUNNING)
 402:Generated_Source\PSoC6/Batteri_ADC.h ****     #define Batteri_ADC_CFG0_DSI_TRIGGER_LEVEL_INIT    (SAR_SAMPLE_CTRL_DSI_TRIGGER_LEVEL_Msk)
 403:Generated_Source\PSoC6/Batteri_ADC.h **** #else /* Edge trigger */
 404:Generated_Source\PSoC6/Batteri_ADC.h ****     #define Batteri_ADC_CFG0_DSI_TRIGGER_LEVEL_INIT    (0u)
 405:Generated_Source\PSoC6/Batteri_ADC.h **** #endif /* End Batteri_ADC_CFG0_FREERUNNING == Batteri_ADC_FREERUNNING */
 406:Generated_Source\PSoC6/Batteri_ADC.h **** 
 407:Generated_Source\PSoC6/Batteri_ADC.h **** /* Set SE_NEG_INPUT */
 408:Generated_Source\PSoC6/Batteri_ADC.h **** #if(Batteri_ADC_CFG0_VNEG_INPUT_SEL == Batteri_ADC_NEG_SEL_VSSA_KELVIN)
 409:Generated_Source\PSoC6/Batteri_ADC.h ****     #define Batteri_ADC_CFG0_SE_NEG_INPUT_INIT \
 410:Generated_Source\PSoC6/Batteri_ADC.h ****             ((uint32)(Batteri_ADC_NEG_SEL_VSSA_KELVIN \
 411:Generated_Source\PSoC6/Batteri_ADC.h ****             << SAR_CTRL_NEG_SEL_Pos ))
 412:Generated_Source\PSoC6/Batteri_ADC.h **** #elif(Batteri_ADC_CFG0_VNEG_INPUT_SEL == Batteri_ADC_NEG_SEL_VREF)
 413:Generated_Source\PSoC6/Batteri_ADC.h **** 
 414:Generated_Source\PSoC6/Batteri_ADC.h ****     /* Do not connect VNEG to VREF when one channel in differential mode used */
 415:Generated_Source\PSoC6/Batteri_ADC.h ****     /* Only needed for config 0 since 2+ configs == 2+ channels */
 416:Generated_Source\PSoC6/Batteri_ADC.h ****     #if((Batteri_ADC_CFG0_CHANNEL_COUNT == 1u) && (Batteri_ADC_CFG0_SINGLE_PRESENT == 0u))
 417:Generated_Source\PSoC6/Batteri_ADC.h ****         #define Batteri_ADC_CFG0_SE_NEG_INPUT_INIT     0u
 418:Generated_Source\PSoC6/Batteri_ADC.h ****     #else    /* multiple channels or one single channel */
 419:Generated_Source\PSoC6/Batteri_ADC.h ****         #define Batteri_ADC_CFG0_SE_NEG_INPUT_INIT     (Batteri_ADC_NEG_SEL_VREF \
 420:Generated_Source\PSoC6/Batteri_ADC.h ****                                                             << SAR_CTRL_NEG_SEL_Pos )
 421:Generated_Source\PSoC6/Batteri_ADC.h ****     #endif /* (Batteri_ADC_CFG0_CHANNEL_COUNT == 1u) && (Batteri_ADC_CFG0_CHANNELS_MODE != 0u) */
 422:Generated_Source\PSoC6/Batteri_ADC.h **** #elif (Batteri_ADC_CFG0_SINGLE_PRESENT != 0u)
 423:Generated_Source\PSoC6/Batteri_ADC.h ****     #define Batteri_ADC_CFG0_SE_NEG_INPUT_INIT         Batteri_ADC_CFG0_NEG_OTHER
 424:Generated_Source\PSoC6/Batteri_ADC.h **** #else
 425:Generated_Source\PSoC6/Batteri_ADC.h ****     #define Batteri_ADC_CFG0_SE_NEG_INPUT_INIT         0u
 426:Generated_Source\PSoC6/Batteri_ADC.h **** #endif /* Batteri_ADC_CFG0_VNEG_INPUT_SEL == Batteri_ADC_NEG_SEL_VSSA_KELVIN */
 427:Generated_Source\PSoC6/Batteri_ADC.h **** 
 428:Generated_Source\PSoC6/Batteri_ADC.h **** #if(Batteri_ADC_TOTAL_CHANNELS_NUM > 1u)
 429:Generated_Source\PSoC6/Batteri_ADC.h ****     #define Batteri_ADC_CFG0_NEG_OTHER                 (uint16)((uint16)Batteri_ADC_SARMUX__VNEG0 <
 430:Generated_Source\PSoC6/Batteri_ADC.h ****     #define Batteri_ADC_CFG0_SWITCH_CONF_INIT          0u
 431:Generated_Source\PSoC6/Batteri_ADC.h **** #else /* Disable SAR sequencer from enabling routing switches in single channel mode */
 432:Generated_Source\PSoC6/Batteri_ADC.h ****     #define Batteri_ADC_CFG0_SWITCH_CONF_INIT          SAR_CTRL_SWITCH_DISABLE_Msk
 433:Generated_Source\PSoC6/Batteri_ADC.h ****     #define Batteri_ADC_CFG0_NEG_OTHER                 0u
 434:Generated_Source\PSoC6/Batteri_ADC.h **** #endif /* Batteri_ADC_CFG0_CHANNEL_COUNT > 1u */
 435:Generated_Source\PSoC6/Batteri_ADC.h **** 
 436:Generated_Source\PSoC6/Batteri_ADC.h **** /* If the SAR is configured for multiple channels, always set SAR_HW_CTRL_NEGVREF to 1 */
 437:Generated_Source\PSoC6/Batteri_ADC.h **** #if(Batteri_ADC_TOTAL_CHANNELS_NUM == 1u)
 438:Generated_Source\PSoC6/Batteri_ADC.h ****     #define Batteri_ADC_CFG0_HW_CTRL_NEGVREF_INIT      0u
 439:Generated_Source\PSoC6/Batteri_ADC.h **** #else
 440:Generated_Source\PSoC6/Batteri_ADC.h ****     #define Batteri_ADC_CFG0_HW_CTRL_NEGVREF_INIT      SAR_CTRL_SAR_HW_CTRL_NEGVREF_Msk
 441:Generated_Source\PSoC6/Batteri_ADC.h **** #endif /* Batteri_ADC_CFG0_CHANNEL_COUNT == 1u */
 442:Generated_Source\PSoC6/Batteri_ADC.h **** 
 443:Generated_Source\PSoC6/Batteri_ADC.h **** #define Batteri_ADC_CFG0_POWER_INIT  (Batteri_ADC_PWR_CTRL_VREF_NORMAL_PWR)
 444:Generated_Source\PSoC6/Batteri_ADC.h **** 
 445:Generated_Source\PSoC6/Batteri_ADC.h **** /* SAMPLE_CTRL initial values */
 446:Generated_Source\PSoC6/Batteri_ADC.h **** #define Batteri_ADC_CFG0_SE_RESULT_FORMAT_INIT \
 447:Generated_Source\PSoC6/Batteri_ADC.h ****         (Batteri_ADC_CFG0_SINGLE_ENDED_FORMAT \
 448:Generated_Source\PSoC6/Batteri_ADC.h ****         << SAR_SAMPLE_CTRL_SINGLE_ENDED_SIGNED_Pos)
ARM GAS  C:\Users\cring\AppData\Local\Temp\ccGHmfvv.s 			page 10


 449:Generated_Source\PSoC6/Batteri_ADC.h **** 
 450:Generated_Source\PSoC6/Batteri_ADC.h **** #define Batteri_ADC_CFG0_DIFF_RESULT_FORMAT_INIT \
 451:Generated_Source\PSoC6/Batteri_ADC.h ****         (Batteri_ADC_CFG0_DIFFERENTIAL_FORMAT \
 452:Generated_Source\PSoC6/Batteri_ADC.h ****         << SAR_SAMPLE_CTRL_DIFFERENTIAL_SIGNED_Pos)
 453:Generated_Source\PSoC6/Batteri_ADC.h **** 
 454:Generated_Source\PSoC6/Batteri_ADC.h **** #define Batteri_ADC_CFG0_AVG_SAMPLES_NUM_INIT \
 455:Generated_Source\PSoC6/Batteri_ADC.h ****         (Batteri_ADC_CFG0_SAMPLES_AVERAGED \
 456:Generated_Source\PSoC6/Batteri_ADC.h ****         << SAR_SAMPLE_CTRL_AVG_CNT_Pos)
 457:Generated_Source\PSoC6/Batteri_ADC.h **** 
 458:Generated_Source\PSoC6/Batteri_ADC.h **** /* Combination of Average Mode and Average Shift */
 459:Generated_Source\PSoC6/Batteri_ADC.h **** #define Batteri_ADC_CFG0_AVG_MODE_INIT \
 460:Generated_Source\PSoC6/Batteri_ADC.h ****         (Batteri_ADC_CFG0_AVGERAGING_MODE \
 461:Generated_Source\PSoC6/Batteri_ADC.h ****         << SAR_SAMPLE_CTRL_AVG_SHIFT_Pos)
 462:Generated_Source\PSoC6/Batteri_ADC.h **** 
 463:Generated_Source\PSoC6/Batteri_ADC.h **** #define Batteri_ADC_CFG0_TRIGGER_OUT_INIT      (0u)
 464:Generated_Source\PSoC6/Batteri_ADC.h **** #define Batteri_ADC_CFG0_UAB_SCAN_MODE_INIT    (0u)
 465:Generated_Source\PSoC6/Batteri_ADC.h **** 
 466:Generated_Source\PSoC6/Batteri_ADC.h **** #define Batteri_ADC_CFG0_VREF_POWER_INIT  \
 467:Generated_Source\PSoC6/Batteri_ADC.h ****         (Batteri_ADC_CFG0_VREF_PWR \
 468:Generated_Source\PSoC6/Batteri_ADC.h ****         << SAR_CTRL_PWR_CTRL_VREF_Pos)
 469:Generated_Source\PSoC6/Batteri_ADC.h **** 
 470:Generated_Source\PSoC6/Batteri_ADC.h **** #define Batteri_ADC_CFG0_COMP_PWR_INIT  \
 471:Generated_Source\PSoC6/Batteri_ADC.h ****         (Batteri_ADC_CFG0_COMP_PWR \
 472:Generated_Source\PSoC6/Batteri_ADC.h ****         << SAR_CTRL_COMP_PWR_Pos)
 473:Generated_Source\PSoC6/Batteri_ADC.h **** 
 474:Generated_Source\PSoC6/Batteri_ADC.h **** #define Batteri_ADC_CFG0_COMP_DLY_INIT  \
 475:Generated_Source\PSoC6/Batteri_ADC.h ****         (Batteri_ADC_CFG0_COMP_DLY \
 476:Generated_Source\PSoC6/Batteri_ADC.h ****         << SAR_CTRL_COMP_DLY_Pos)
 477:Generated_Source\PSoC6/Batteri_ADC.h **** 
 478:Generated_Source\PSoC6/Batteri_ADC.h **** #define Batteri_ADC_CFG0_CTRL_INIT  \
 479:Generated_Source\PSoC6/Batteri_ADC.h ****         (Batteri_ADC_CFG0_VREF_POWER_INIT \
 480:Generated_Source\PSoC6/Batteri_ADC.h ****         | Batteri_ADC_CFG0_VREF_SEL_MASK \
 481:Generated_Source\PSoC6/Batteri_ADC.h ****         | Batteri_ADC_CFG0_SE_NEG_INPUT_INIT \
 482:Generated_Source\PSoC6/Batteri_ADC.h ****         | Batteri_ADC_CFG0_HW_CTRL_NEGVREF_INIT \
 483:Generated_Source\PSoC6/Batteri_ADC.h ****         | Batteri_ADC_CFG0_COMP_DLY_INIT \
 484:Generated_Source\PSoC6/Batteri_ADC.h ****         | SAR_CTRL_REFBUF_EN_Msk \
 485:Generated_Source\PSoC6/Batteri_ADC.h ****         | Batteri_ADC_CFG0_COMP_PWR_INIT \
 486:Generated_Source\PSoC6/Batteri_ADC.h ****         | SAR_CTRL_DSI_SYNC_CONFIG_Msk  \
 487:Generated_Source\PSoC6/Batteri_ADC.h ****         | Batteri_ADC_CFG0_SWITCH_CONF_INIT )
 488:Generated_Source\PSoC6/Batteri_ADC.h **** 
 489:Generated_Source\PSoC6/Batteri_ADC.h **** #define Batteri_ADC_CFG0_SAMPLE_CTRL_INIT \
 490:Generated_Source\PSoC6/Batteri_ADC.h ****         (Batteri_ADC_CFG0_SE_RESULT_FORMAT_INIT \
 491:Generated_Source\PSoC6/Batteri_ADC.h ****         | Batteri_ADC_CFG0_DIFF_RESULT_FORMAT_INIT \
 492:Generated_Source\PSoC6/Batteri_ADC.h ****         | Batteri_ADC_CFG0_AVG_SAMPLES_NUM_INIT \
 493:Generated_Source\PSoC6/Batteri_ADC.h ****         | Batteri_ADC_CFG0_AVG_MODE_INIT \
 494:Generated_Source\PSoC6/Batteri_ADC.h ****         | Batteri_ADC_CFG0_DSI_TRIGGER_LEVEL_INIT \
 495:Generated_Source\PSoC6/Batteri_ADC.h ****         | Batteri_ADC_CFG0_DSI_TRIGGER_EN_INIT \
 496:Generated_Source\PSoC6/Batteri_ADC.h ****         | Batteri_ADC_CFG0_UAB_SCAN_MODE_INIT \
 497:Generated_Source\PSoC6/Batteri_ADC.h ****         | SAR_SAMPLE_CTRL_VALID_IGNORE_Msk \
 498:Generated_Source\PSoC6/Batteri_ADC.h ****         | Batteri_ADC_CFG0_TRIGGER_OUT_INIT \
 499:Generated_Source\PSoC6/Batteri_ADC.h ****         | SAR_SAMPLE_CTRL_EOS_DSI_OUT_EN_Msk \
 500:Generated_Source\PSoC6/Batteri_ADC.h **** )
 501:Generated_Source\PSoC6/Batteri_ADC.h **** 
 502:Generated_Source\PSoC6/Batteri_ADC.h **** #define Batteri_ADC_CFG0_RANGE_THRES_INIT \
 503:Generated_Source\PSoC6/Batteri_ADC.h ****         (Batteri_ADC_CFG0_LOW_LIMIT \
 504:Generated_Source\PSoC6/Batteri_ADC.h ****         | (uint32)((uint32)Batteri_ADC_CFG0_HIGH_LIMIT \
 505:Generated_Source\PSoC6/Batteri_ADC.h ****         << SAR_RANGE_THRES_RANGE_HIGH_Pos))
ARM GAS  C:\Users\cring\AppData\Local\Temp\ccGHmfvv.s 			page 11


 506:Generated_Source\PSoC6/Batteri_ADC.h **** 
 507:Generated_Source\PSoC6/Batteri_ADC.h **** #define Batteri_ADC_CFG0_RANGE_COND_INIT   (cy_en_sar_range_detect_condition_t)Batteri_ADC_CFG0_RAN
 508:Generated_Source\PSoC6/Batteri_ADC.h **** 
 509:Generated_Source\PSoC6/Batteri_ADC.h **** /* Misc Config
 510:Generated_Source\PSoC6/Batteri_ADC.h ****     [0] - Freerunning: Set if the sample mode is freerunning
 511:Generated_Source\PSoC6/Batteri_ADC.h **** */
 512:Generated_Source\PSoC6/Batteri_ADC.h **** #define Batteri_ADC_CFG0_MISC_CONFIG_INIT \
 513:Generated_Source\PSoC6/Batteri_ADC.h ****         (Batteri_ADC_CFG0_FREERUNNING)
 514:Generated_Source\PSoC6/Batteri_ADC.h **** 
 515:Generated_Source\PSoC6/Batteri_ADC.h **** /* ************************************************************************** */
 516:Generated_Source\PSoC6/Batteri_ADC.h **** /* End configuration 0 calculated defines                                     */
 517:Generated_Source\PSoC6/Batteri_ADC.h **** /* ************************************************************************** */
 518:Generated_Source\PSoC6/Batteri_ADC.h **** 
 519:Generated_Source\PSoC6/Batteri_ADC.h **** /* ************************************************************************** */
 520:Generated_Source\PSoC6/Batteri_ADC.h **** /* Begin configuration 1 calculated defines                                   */
 521:Generated_Source\PSoC6/Batteri_ADC.h **** /* ************************************************************************** */
 522:Generated_Source\PSoC6/Batteri_ADC.h **** #if(Batteri_ADC_TOTAL_CONFIGS > 1)
 523:Generated_Source\PSoC6/Batteri_ADC.h ****     #define Batteri_ADC_CFG1_SAMPLE_TIME01_INIT \
 524:Generated_Source\PSoC6/Batteri_ADC.h ****             ((Batteri_ADC_CFG1_APERTURE_TIME0 \
 525:Generated_Source\PSoC6/Batteri_ADC.h ****             << SAR_SAMPLE_TIME01_SAMPLE_TIME0_Pos) \
 526:Generated_Source\PSoC6/Batteri_ADC.h ****             | (Batteri_ADC_CFG1_APERTURE_TIME1 \
 527:Generated_Source\PSoC6/Batteri_ADC.h ****             << SAR_SAMPLE_TIME01_SAMPLE_TIME1_Pos))
 528:Generated_Source\PSoC6/Batteri_ADC.h **** 
 529:Generated_Source\PSoC6/Batteri_ADC.h ****     #define Batteri_ADC_CFG1_SAMPLE_TIME23_INIT \
 530:Generated_Source\PSoC6/Batteri_ADC.h ****             ((Batteri_ADC_CFG1_APERTURE_TIME2 \
 531:Generated_Source\PSoC6/Batteri_ADC.h ****             << SAR_SAMPLE_TIME23_SAMPLE_TIME2_Pos) \
 532:Generated_Source\PSoC6/Batteri_ADC.h ****             | (Batteri_ADC_CFG1_APERTURE_TIME3 \
 533:Generated_Source\PSoC6/Batteri_ADC.h ****             << SAR_SAMPLE_TIME23_SAMPLE_TIME3_Pos))
 534:Generated_Source\PSoC6/Batteri_ADC.h **** 
 535:Generated_Source\PSoC6/Batteri_ADC.h ****     /* Enable soc pin if used */
 536:Generated_Source\PSoC6/Batteri_ADC.h ****     #define Batteri_ADC_CFG1_DSI_TRIGGER_EN_INIT \
 537:Generated_Source\PSoC6/Batteri_ADC.h ****             (Batteri_ADC_CFG1_USE_SOC \
 538:Generated_Source\PSoC6/Batteri_ADC.h ****             << SAR_SAMPLE_CTRL_DSI_TRIGGER_EN_Pos)
 539:Generated_Source\PSoC6/Batteri_ADC.h **** 
 540:Generated_Source\PSoC6/Batteri_ADC.h ****     /* Set soc operation to edge or level based on sample mode */
 541:Generated_Source\PSoC6/Batteri_ADC.h ****     #if(Batteri_ADC_CFG1_FREERUNNING == Batteri_ADC_FREERUNNING)
 542:Generated_Source\PSoC6/Batteri_ADC.h ****         #define Batteri_ADC_CFG1_DSI_TRIGGER_LEVEL_INIT    (SAR_SAMPLE_CTRL_DSI_TRIGGER_LEVEL_Msk)
 543:Generated_Source\PSoC6/Batteri_ADC.h ****     #else /* Edge trigger */
 544:Generated_Source\PSoC6/Batteri_ADC.h ****         #define Batteri_ADC_CFG1_DSI_TRIGGER_LEVEL_INIT    (0u)
 545:Generated_Source\PSoC6/Batteri_ADC.h ****     #endif /* End Batteri_ADC_CFG1_FREERUNNING == Batteri_ADC_FREERUNNING */
 546:Generated_Source\PSoC6/Batteri_ADC.h **** 
 547:Generated_Source\PSoC6/Batteri_ADC.h ****     /* Set SE_NEG_INPUT */
 548:Generated_Source\PSoC6/Batteri_ADC.h ****     #if(Batteri_ADC_CFG1_VNEG_INPUT_SEL == Batteri_ADC_NEG_SEL_VSSA_KELVIN)
 549:Generated_Source\PSoC6/Batteri_ADC.h ****         #define Batteri_ADC_CFG1_SE_NEG_INPUT_INIT \
 550:Generated_Source\PSoC6/Batteri_ADC.h ****             ((uint32)(Batteri_ADC_NEG_SEL_VSSA_KELVIN \
 551:Generated_Source\PSoC6/Batteri_ADC.h ****             << SAR_CTRL_NEG_SEL_Pos ))
 552:Generated_Source\PSoC6/Batteri_ADC.h ****     #elif(Batteri_ADC_CFG1_VNEG_INPUT_SEL == Batteri_ADC_NEG_SEL_VREF)
 553:Generated_Source\PSoC6/Batteri_ADC.h ****         #define Batteri_ADC_CFG1_SE_NEG_INPUT_INIT     (Batteri_ADC_NEG_SEL_VREF \
 554:Generated_Source\PSoC6/Batteri_ADC.h ****                                                             << SAR_CTRL_NEG_SEL_Pos )
 555:Generated_Source\PSoC6/Batteri_ADC.h ****     #elif (Batteri_ADC_CFG1_SINGLE_PRESENT != 0u)
 556:Generated_Source\PSoC6/Batteri_ADC.h ****         #define Batteri_ADC_CFG1_SE_NEG_INPUT_INIT         Batteri_ADC_CFG1_NEG_OTHER
 557:Generated_Source\PSoC6/Batteri_ADC.h ****     #else
 558:Generated_Source\PSoC6/Batteri_ADC.h ****         #define Batteri_ADC_CFG1_SE_NEG_INPUT_INIT         0u
 559:Generated_Source\PSoC6/Batteri_ADC.h ****     #endif /* Batteri_ADC_CFG1_VNEG_INPUT_SEL == Batteri_ADC_NEG_SEL_VSSA_KELVIN */
 560:Generated_Source\PSoC6/Batteri_ADC.h **** 
 561:Generated_Source\PSoC6/Batteri_ADC.h ****     #define Batteri_ADC_CFG1_NEG_OTHER                 (uint16)((uint16)Batteri_ADC_SARMUX__VNEG1 <
 562:Generated_Source\PSoC6/Batteri_ADC.h ****     #define Batteri_ADC_CFG1_SWITCH_CONF_INIT          0u
ARM GAS  C:\Users\cring\AppData\Local\Temp\ccGHmfvv.s 			page 12


 563:Generated_Source\PSoC6/Batteri_ADC.h **** 
 564:Generated_Source\PSoC6/Batteri_ADC.h ****     /* If the SAR is configured for multiple channels, always set SAR_HW_CTRL_NEGVREF to 1 */
 565:Generated_Source\PSoC6/Batteri_ADC.h ****     #define Batteri_ADC_CFG1_HW_CTRL_NEGVREF_INIT      SAR_CTRL_SAR_HW_CTRL_NEGVREF_Msk
 566:Generated_Source\PSoC6/Batteri_ADC.h **** 
 567:Generated_Source\PSoC6/Batteri_ADC.h ****     #define Batteri_ADC_CFG1_POWER_INIT  (Batteri_ADC_PWR_CTRL_VREF_NORMAL_PWR)
 568:Generated_Source\PSoC6/Batteri_ADC.h **** 
 569:Generated_Source\PSoC6/Batteri_ADC.h ****     /* SAMPLE_CTRL initial values */
 570:Generated_Source\PSoC6/Batteri_ADC.h ****     #define Batteri_ADC_CFG1_SE_RESULT_FORMAT_INIT \
 571:Generated_Source\PSoC6/Batteri_ADC.h ****             (Batteri_ADC_CFG1_SINGLE_ENDED_FORMAT \
 572:Generated_Source\PSoC6/Batteri_ADC.h ****             << SAR_SAMPLE_CTRL_SINGLE_ENDED_SIGNED_Pos)
 573:Generated_Source\PSoC6/Batteri_ADC.h **** 
 574:Generated_Source\PSoC6/Batteri_ADC.h ****     #define Batteri_ADC_CFG1_DIFF_RESULT_FORMAT_INIT \
 575:Generated_Source\PSoC6/Batteri_ADC.h ****             (Batteri_ADC_CFG1_DIFFERENTIAL_FORMAT \
 576:Generated_Source\PSoC6/Batteri_ADC.h ****             << SAR_SAMPLE_CTRL_DIFFERENTIAL_SIGNED_Pos)
 577:Generated_Source\PSoC6/Batteri_ADC.h **** 
 578:Generated_Source\PSoC6/Batteri_ADC.h ****     #define Batteri_ADC_CFG1_AVG_SAMPLES_NUM_INIT \
 579:Generated_Source\PSoC6/Batteri_ADC.h ****             (Batteri_ADC_CFG1_SAMPLES_AVERAGED \
 580:Generated_Source\PSoC6/Batteri_ADC.h ****             << SAR_SAMPLE_CTRL_AVG_CNT_Pos)
 581:Generated_Source\PSoC6/Batteri_ADC.h **** 
 582:Generated_Source\PSoC6/Batteri_ADC.h ****     /* Combination of Average Mode and Average Shift */
 583:Generated_Source\PSoC6/Batteri_ADC.h ****     #define Batteri_ADC_CFG1_AVG_MODE_INIT \
 584:Generated_Source\PSoC6/Batteri_ADC.h ****             (Batteri_ADC_CFG1_AVGERAGING_MODE \
 585:Generated_Source\PSoC6/Batteri_ADC.h ****             << SAR_SAMPLE_CTRL_AVG_SHIFT_Pos)
 586:Generated_Source\PSoC6/Batteri_ADC.h **** 
 587:Generated_Source\PSoC6/Batteri_ADC.h ****     #define Batteri_ADC_CFG1_TRIGGER_OUT_INIT      (0u)
 588:Generated_Source\PSoC6/Batteri_ADC.h ****     #define Batteri_ADC_CFG1_UAB_SCAN_MODE_INIT    (0u)
 589:Generated_Source\PSoC6/Batteri_ADC.h **** 
 590:Generated_Source\PSoC6/Batteri_ADC.h ****     #define Batteri_ADC_CFG1_VREF_POWER_INIT  \
 591:Generated_Source\PSoC6/Batteri_ADC.h ****             (Batteri_ADC_CFG1_VREF_PWR \
 592:Generated_Source\PSoC6/Batteri_ADC.h ****             << SAR_CTRL_PWR_CTRL_VREF_Pos)
 593:Generated_Source\PSoC6/Batteri_ADC.h **** 
 594:Generated_Source\PSoC6/Batteri_ADC.h ****     #define Batteri_ADC_CFG1_COMP_PWR_INIT  \
 595:Generated_Source\PSoC6/Batteri_ADC.h ****             (Batteri_ADC_CFG1_COMP_PWR \
 596:Generated_Source\PSoC6/Batteri_ADC.h ****             << SAR_CTRL_COMP_PWR_Pos)
 597:Generated_Source\PSoC6/Batteri_ADC.h **** 
 598:Generated_Source\PSoC6/Batteri_ADC.h ****     #define Batteri_ADC_CFG1_COMP_DLY_INIT  \
 599:Generated_Source\PSoC6/Batteri_ADC.h ****             (Batteri_ADC_CFG1_COMP_DLY \
 600:Generated_Source\PSoC6/Batteri_ADC.h ****             << SAR_CTRL_COMP_DLY_Pos)
 601:Generated_Source\PSoC6/Batteri_ADC.h **** 
 602:Generated_Source\PSoC6/Batteri_ADC.h ****     #define Batteri_ADC_CFG1_CTRL_INIT  \
 603:Generated_Source\PSoC6/Batteri_ADC.h ****             (Batteri_ADC_CFG1_VREF_POWER_INIT \
 604:Generated_Source\PSoC6/Batteri_ADC.h ****             | Batteri_ADC_CFG1_VREF_SEL_MASK \
 605:Generated_Source\PSoC6/Batteri_ADC.h ****             | Batteri_ADC_CFG1_SE_NEG_INPUT_INIT \
 606:Generated_Source\PSoC6/Batteri_ADC.h ****             | Batteri_ADC_CFG1_HW_CTRL_NEGVREF_INIT \
 607:Generated_Source\PSoC6/Batteri_ADC.h ****             | Batteri_ADC_CFG1_COMP_DLY_INIT \
 608:Generated_Source\PSoC6/Batteri_ADC.h ****             | SAR_CTRL_REFBUF_EN_Msk \
 609:Generated_Source\PSoC6/Batteri_ADC.h ****             | Batteri_ADC_CFG1_COMP_PWR_INIT \
 610:Generated_Source\PSoC6/Batteri_ADC.h ****             | SAR_CTRL_DSI_SYNC_CONFIG_Msk  \
 611:Generated_Source\PSoC6/Batteri_ADC.h ****             | Batteri_ADC_CFG1_SWITCH_CONF_INIT )
 612:Generated_Source\PSoC6/Batteri_ADC.h **** 
 613:Generated_Source\PSoC6/Batteri_ADC.h ****     #define Batteri_ADC_CFG1_SAMPLE_CTRL_INIT \
 614:Generated_Source\PSoC6/Batteri_ADC.h ****             (Batteri_ADC_CFG1_SE_RESULT_FORMAT_INIT \
 615:Generated_Source\PSoC6/Batteri_ADC.h ****             | Batteri_ADC_CFG1_DIFF_RESULT_FORMAT_INIT \
 616:Generated_Source\PSoC6/Batteri_ADC.h ****             | Batteri_ADC_CFG1_AVG_SAMPLES_NUM_INIT \
 617:Generated_Source\PSoC6/Batteri_ADC.h ****             | Batteri_ADC_CFG1_AVG_MODE_INIT \
 618:Generated_Source\PSoC6/Batteri_ADC.h ****             | Batteri_ADC_CFG1_DSI_TRIGGER_LEVEL_INIT \
 619:Generated_Source\PSoC6/Batteri_ADC.h ****             | Batteri_ADC_CFG1_DSI_TRIGGER_EN_INIT \
ARM GAS  C:\Users\cring\AppData\Local\Temp\ccGHmfvv.s 			page 13


 620:Generated_Source\PSoC6/Batteri_ADC.h ****             | Batteri_ADC_CFG1_UAB_SCAN_MODE_INIT \
 621:Generated_Source\PSoC6/Batteri_ADC.h ****             | SAR_SAMPLE_CTRL_VALID_IGNORE_Msk \
 622:Generated_Source\PSoC6/Batteri_ADC.h ****             | Batteri_ADC_CFG1_TRIGGER_OUT_INIT \
 623:Generated_Source\PSoC6/Batteri_ADC.h ****             | SAR_SAMPLE_CTRL_EOS_DSI_OUT_EN_Msk \
 624:Generated_Source\PSoC6/Batteri_ADC.h ****     )
 625:Generated_Source\PSoC6/Batteri_ADC.h **** 
 626:Generated_Source\PSoC6/Batteri_ADC.h ****     #define Batteri_ADC_CFG1_RANGE_THRES_INIT \
 627:Generated_Source\PSoC6/Batteri_ADC.h ****             (Batteri_ADC_CFG1_LOW_LIMIT \
 628:Generated_Source\PSoC6/Batteri_ADC.h ****             | (uint32)((uint32)Batteri_ADC_CFG1_HIGH_LIMIT \
 629:Generated_Source\PSoC6/Batteri_ADC.h ****             << SAR_RANGE_THRES_RANGE_HIGH_Pos))
 630:Generated_Source\PSoC6/Batteri_ADC.h **** 
 631:Generated_Source\PSoC6/Batteri_ADC.h ****     #define Batteri_ADC_CFG1_RANGE_COND_INIT   (cy_en_sar_range_detect_condition_t)Batteri_ADC_CFG1
 632:Generated_Source\PSoC6/Batteri_ADC.h **** 
 633:Generated_Source\PSoC6/Batteri_ADC.h ****     /* Misc Config
 634:Generated_Source\PSoC6/Batteri_ADC.h ****         [0] - Freerunning: Set if the sample mode is freerunning
 635:Generated_Source\PSoC6/Batteri_ADC.h ****     */
 636:Generated_Source\PSoC6/Batteri_ADC.h ****     #define Batteri_ADC_CFG1_MISC_CONFIG_INIT \
 637:Generated_Source\PSoC6/Batteri_ADC.h ****             (Batteri_ADC_CFG1_FREERUNNING)
 638:Generated_Source\PSoC6/Batteri_ADC.h **** #endif /* Batteri_ADC_TOTAL_CONFIGS > 1 */
 639:Generated_Source\PSoC6/Batteri_ADC.h **** 
 640:Generated_Source\PSoC6/Batteri_ADC.h **** /* ************************************************************************** */
 641:Generated_Source\PSoC6/Batteri_ADC.h **** /* End configuration 1 calculated defines                                     */
 642:Generated_Source\PSoC6/Batteri_ADC.h **** /* ************************************************************************** */
 643:Generated_Source\PSoC6/Batteri_ADC.h **** 
 644:Generated_Source\PSoC6/Batteri_ADC.h **** /* ************************************************************************** */
 645:Generated_Source\PSoC6/Batteri_ADC.h **** /* Begin configuration 2 calculated defines                                   */
 646:Generated_Source\PSoC6/Batteri_ADC.h **** /* ************************************************************************** */
 647:Generated_Source\PSoC6/Batteri_ADC.h **** #if(Batteri_ADC_TOTAL_CONFIGS > 2)
 648:Generated_Source\PSoC6/Batteri_ADC.h ****     #define Batteri_ADC_CFG2_SAMPLE_TIME01_INIT \
 649:Generated_Source\PSoC6/Batteri_ADC.h ****             ((Batteri_ADC_CFG2_APERTURE_TIME0 \
 650:Generated_Source\PSoC6/Batteri_ADC.h ****             << SAR_SAMPLE_TIME01_SAMPLE_TIME0_Pos) \
 651:Generated_Source\PSoC6/Batteri_ADC.h ****             | (Batteri_ADC_CFG2_APERTURE_TIME1 \
 652:Generated_Source\PSoC6/Batteri_ADC.h ****             << SAR_SAMPLE_TIME01_SAMPLE_TIME1_Pos))
 653:Generated_Source\PSoC6/Batteri_ADC.h **** 
 654:Generated_Source\PSoC6/Batteri_ADC.h ****     #define Batteri_ADC_CFG2_SAMPLE_TIME23_INIT \
 655:Generated_Source\PSoC6/Batteri_ADC.h ****             ((Batteri_ADC_CFG2_APERTURE_TIME2 \
 656:Generated_Source\PSoC6/Batteri_ADC.h ****             << SAR_SAMPLE_TIME23_SAMPLE_TIME2_Pos) \
 657:Generated_Source\PSoC6/Batteri_ADC.h ****             | (Batteri_ADC_CFG2_APERTURE_TIME3 \
 658:Generated_Source\PSoC6/Batteri_ADC.h ****             << SAR_SAMPLE_TIME23_SAMPLE_TIME3_Pos))
 659:Generated_Source\PSoC6/Batteri_ADC.h **** 
 660:Generated_Source\PSoC6/Batteri_ADC.h ****     /* Enable soc pin if used */
 661:Generated_Source\PSoC6/Batteri_ADC.h ****     #define Batteri_ADC_CFG2_DSI_TRIGGER_EN_INIT \
 662:Generated_Source\PSoC6/Batteri_ADC.h ****             (Batteri_ADC_CFG2_USE_SOC \
 663:Generated_Source\PSoC6/Batteri_ADC.h ****             << SAR_SAMPLE_CTRL_DSI_TRIGGER_EN_Pos)
 664:Generated_Source\PSoC6/Batteri_ADC.h **** 
 665:Generated_Source\PSoC6/Batteri_ADC.h ****     /* Set soc operation to edge or level based on sample mode */
 666:Generated_Source\PSoC6/Batteri_ADC.h ****     #if(Batteri_ADC_CFG2_FREERUNNING == Batteri_ADC_FREERUNNING)
 667:Generated_Source\PSoC6/Batteri_ADC.h ****         #define Batteri_ADC_CFG2_DSI_TRIGGER_LEVEL_INIT    (SAR_SAMPLE_CTRL_DSI_TRIGGER_LEVEL_Msk)
 668:Generated_Source\PSoC6/Batteri_ADC.h ****     #else /* Edge trigger */
 669:Generated_Source\PSoC6/Batteri_ADC.h ****         #define Batteri_ADC_CFG2_DSI_TRIGGER_LEVEL_INIT    (0u)
 670:Generated_Source\PSoC6/Batteri_ADC.h ****     #endif /* End Batteri_ADC_CFG2_FREERUNNING == Batteri_ADC_FREERUNNING */
 671:Generated_Source\PSoC6/Batteri_ADC.h **** 
 672:Generated_Source\PSoC6/Batteri_ADC.h ****     /* Set SE_NEG_INPUT */
 673:Generated_Source\PSoC6/Batteri_ADC.h ****     #if(Batteri_ADC_CFG2_VNEG_INPUT_SEL == Batteri_ADC_NEG_SEL_VSSA_KELVIN)
 674:Generated_Source\PSoC6/Batteri_ADC.h ****         #define Batteri_ADC_CFG2_SE_NEG_INPUT_INIT \
 675:Generated_Source\PSoC6/Batteri_ADC.h ****             ((uint32)(Batteri_ADC_NEG_SEL_VSSA_KELVIN \
 676:Generated_Source\PSoC6/Batteri_ADC.h ****             << SAR_CTRL_NEG_SEL_Pos ))
ARM GAS  C:\Users\cring\AppData\Local\Temp\ccGHmfvv.s 			page 14


 677:Generated_Source\PSoC6/Batteri_ADC.h ****     #elif(Batteri_ADC_CFG2_VNEG_INPUT_SEL == Batteri_ADC_NEG_SEL_VREF)
 678:Generated_Source\PSoC6/Batteri_ADC.h ****         #define Batteri_ADC_CFG2_SE_NEG_INPUT_INIT     (Batteri_ADC_NEG_SEL_VREF \
 679:Generated_Source\PSoC6/Batteri_ADC.h ****                                                                 << SAR_CTRL_NEG_SEL_Pos )
 680:Generated_Source\PSoC6/Batteri_ADC.h ****     #elif (Batteri_ADC_CFG2_SINGLE_PRESENT != 0u)
 681:Generated_Source\PSoC6/Batteri_ADC.h ****         #define Batteri_ADC_CFG2_SE_NEG_INPUT_INIT         Batteri_ADC_CFG2_NEG_OTHER
 682:Generated_Source\PSoC6/Batteri_ADC.h ****     #else
 683:Generated_Source\PSoC6/Batteri_ADC.h ****         #define Batteri_ADC_CFG2_SE_NEG_INPUT_INIT         0u
 684:Generated_Source\PSoC6/Batteri_ADC.h ****     #endif /* Batteri_ADC_CFG2_VNEG_INPUT_SEL == Batteri_ADC_NEG_SEL_VSSA_KELVIN */
 685:Generated_Source\PSoC6/Batteri_ADC.h **** 
 686:Generated_Source\PSoC6/Batteri_ADC.h ****    #define Batteri_ADC_CFG2_NEG_OTHER                 (uint16)((uint16)Batteri_ADC_SARMUX__VNEG2 <<
 687:Generated_Source\PSoC6/Batteri_ADC.h **** 
 688:Generated_Source\PSoC6/Batteri_ADC.h ****     #define Batteri_ADC_CFG2_SWITCH_CONF_INIT          0u
 689:Generated_Source\PSoC6/Batteri_ADC.h **** 
 690:Generated_Source\PSoC6/Batteri_ADC.h ****     /* If the SAR is configured for multiple channels, always set SAR_HW_CTRL_NEGVREF to 1 */
 691:Generated_Source\PSoC6/Batteri_ADC.h ****     #define Batteri_ADC_CFG2_HW_CTRL_NEGVREF_INIT      SAR_CTRL_SAR_HW_CTRL_NEGVREF_Msk
 692:Generated_Source\PSoC6/Batteri_ADC.h **** 
 693:Generated_Source\PSoC6/Batteri_ADC.h ****     #define Batteri_ADC_CFG2_POWER_INIT  (Batteri_ADC_PWR_CTRL_VREF_NORMAL_PWR)
 694:Generated_Source\PSoC6/Batteri_ADC.h **** 
 695:Generated_Source\PSoC6/Batteri_ADC.h ****     /* SAMPLE_CTRL initial values */
 696:Generated_Source\PSoC6/Batteri_ADC.h ****     #define Batteri_ADC_CFG2_SE_RESULT_FORMAT_INIT \
 697:Generated_Source\PSoC6/Batteri_ADC.h ****             (Batteri_ADC_CFG2_SINGLE_ENDED_FORMAT \
 698:Generated_Source\PSoC6/Batteri_ADC.h ****             << SAR_SAMPLE_CTRL_SINGLE_ENDED_SIGNED_Pos)
 699:Generated_Source\PSoC6/Batteri_ADC.h **** 
 700:Generated_Source\PSoC6/Batteri_ADC.h ****     #define Batteri_ADC_CFG2_DIFF_RESULT_FORMAT_INIT \
 701:Generated_Source\PSoC6/Batteri_ADC.h ****             (Batteri_ADC_CFG2_DIFFERENTIAL_FORMAT \
 702:Generated_Source\PSoC6/Batteri_ADC.h ****             << SAR_SAMPLE_CTRL_DIFFERENTIAL_SIGNED_Pos)
 703:Generated_Source\PSoC6/Batteri_ADC.h **** 
 704:Generated_Source\PSoC6/Batteri_ADC.h ****     #define Batteri_ADC_CFG2_AVG_SAMPLES_NUM_INIT \
 705:Generated_Source\PSoC6/Batteri_ADC.h ****             (Batteri_ADC_CFG2_SAMPLES_AVERAGED \
 706:Generated_Source\PSoC6/Batteri_ADC.h ****             << SAR_SAMPLE_CTRL_AVG_CNT_Pos)
 707:Generated_Source\PSoC6/Batteri_ADC.h **** 
 708:Generated_Source\PSoC6/Batteri_ADC.h ****     /* Combination of Average Mode and Average Shift */
 709:Generated_Source\PSoC6/Batteri_ADC.h ****     #define Batteri_ADC_CFG2_AVG_MODE_INIT \
 710:Generated_Source\PSoC6/Batteri_ADC.h ****             (Batteri_ADC_CFG2_AVGERAGING_MODE \
 711:Generated_Source\PSoC6/Batteri_ADC.h ****             << SAR_SAMPLE_CTRL_AVG_SHIFT_Pos)
 712:Generated_Source\PSoC6/Batteri_ADC.h **** 
 713:Generated_Source\PSoC6/Batteri_ADC.h ****     #define Batteri_ADC_CFG2_TRIGGER_OUT_INIT      (0u)
 714:Generated_Source\PSoC6/Batteri_ADC.h ****     #define Batteri_ADC_CFG2_UAB_SCAN_MODE_INIT    (0u)
 715:Generated_Source\PSoC6/Batteri_ADC.h **** 
 716:Generated_Source\PSoC6/Batteri_ADC.h **** 
 717:Generated_Source\PSoC6/Batteri_ADC.h ****     #define Batteri_ADC_CFG2_VREF_POWER_INIT  \
 718:Generated_Source\PSoC6/Batteri_ADC.h ****             (Batteri_ADC_CFG2_VREF_PWR \
 719:Generated_Source\PSoC6/Batteri_ADC.h ****             << SAR_CTRL_PWR_CTRL_VREF_Pos)
 720:Generated_Source\PSoC6/Batteri_ADC.h **** 
 721:Generated_Source\PSoC6/Batteri_ADC.h ****     #define Batteri_ADC_CFG2_COMP_PWR_INIT  \
 722:Generated_Source\PSoC6/Batteri_ADC.h ****             (Batteri_ADC_CFG2_COMP_PWR \
 723:Generated_Source\PSoC6/Batteri_ADC.h ****             << SAR_CTRL_COMP_PWR_Pos)
 724:Generated_Source\PSoC6/Batteri_ADC.h **** 
 725:Generated_Source\PSoC6/Batteri_ADC.h ****     #define Batteri_ADC_CFG2_COMP_DLY_INIT  \
 726:Generated_Source\PSoC6/Batteri_ADC.h ****             (Batteri_ADC_CFG2_COMP_DLY \
 727:Generated_Source\PSoC6/Batteri_ADC.h ****             << SAR_CTRL_COMP_DLY_Pos)
 728:Generated_Source\PSoC6/Batteri_ADC.h **** 
 729:Generated_Source\PSoC6/Batteri_ADC.h ****     #define Batteri_ADC_CFG2_CTRL_INIT  \
 730:Generated_Source\PSoC6/Batteri_ADC.h ****             (Batteri_ADC_CFG2_VREF_POWER_INIT \
 731:Generated_Source\PSoC6/Batteri_ADC.h ****             | Batteri_ADC_CFG2_VREF_SEL_MASK \
 732:Generated_Source\PSoC6/Batteri_ADC.h ****             | Batteri_ADC_CFG2_SE_NEG_INPUT_INIT \
 733:Generated_Source\PSoC6/Batteri_ADC.h ****             | Batteri_ADC_CFG2_HW_CTRL_NEGVREF_INIT \
ARM GAS  C:\Users\cring\AppData\Local\Temp\ccGHmfvv.s 			page 15


 734:Generated_Source\PSoC6/Batteri_ADC.h ****             | Batteri_ADC_CFG2_COMP_DLY_INIT \
 735:Generated_Source\PSoC6/Batteri_ADC.h ****             | SAR_CTRL_REFBUF_EN_Msk \
 736:Generated_Source\PSoC6/Batteri_ADC.h ****             | Batteri_ADC_CFG2_COMP_PWR_INIT \
 737:Generated_Source\PSoC6/Batteri_ADC.h ****             | SAR_CTRL_DSI_SYNC_CONFIG_Msk  \
 738:Generated_Source\PSoC6/Batteri_ADC.h ****             | Batteri_ADC_CFG2_SWITCH_CONF_INIT )
 739:Generated_Source\PSoC6/Batteri_ADC.h **** 
 740:Generated_Source\PSoC6/Batteri_ADC.h **** 
 741:Generated_Source\PSoC6/Batteri_ADC.h ****     #define Batteri_ADC_CFG2_SAMPLE_CTRL_INIT \
 742:Generated_Source\PSoC6/Batteri_ADC.h ****             (Batteri_ADC_CFG2_SE_RESULT_FORMAT_INIT \
 743:Generated_Source\PSoC6/Batteri_ADC.h ****             | Batteri_ADC_CFG2_DIFF_RESULT_FORMAT_INIT \
 744:Generated_Source\PSoC6/Batteri_ADC.h ****             | Batteri_ADC_CFG2_AVG_SAMPLES_NUM_INIT \
 745:Generated_Source\PSoC6/Batteri_ADC.h ****             | Batteri_ADC_CFG2_AVG_MODE_INIT \
 746:Generated_Source\PSoC6/Batteri_ADC.h ****             | Batteri_ADC_CFG2_DSI_TRIGGER_LEVEL_INIT \
 747:Generated_Source\PSoC6/Batteri_ADC.h ****             | Batteri_ADC_CFG2_DSI_TRIGGER_EN_INIT \
 748:Generated_Source\PSoC6/Batteri_ADC.h ****             | Batteri_ADC_CFG2_UAB_SCAN_MODE_INIT \
 749:Generated_Source\PSoC6/Batteri_ADC.h ****             | SAR_SAMPLE_CTRL_VALID_IGNORE_Msk \
 750:Generated_Source\PSoC6/Batteri_ADC.h ****             | Batteri_ADC_CFG2_TRIGGER_OUT_INIT \
 751:Generated_Source\PSoC6/Batteri_ADC.h ****             | SAR_SAMPLE_CTRL_EOS_DSI_OUT_EN_Msk \
 752:Generated_Source\PSoC6/Batteri_ADC.h ****     )
 753:Generated_Source\PSoC6/Batteri_ADC.h **** 
 754:Generated_Source\PSoC6/Batteri_ADC.h ****     #define Batteri_ADC_CFG2_RANGE_THRES_INIT \
 755:Generated_Source\PSoC6/Batteri_ADC.h ****             (Batteri_ADC_CFG2_LOW_LIMIT \
 756:Generated_Source\PSoC6/Batteri_ADC.h ****             | (uint32)((uint32)Batteri_ADC_CFG2_HIGH_LIMIT \
 757:Generated_Source\PSoC6/Batteri_ADC.h ****             << SAR_RANGE_THRES_RANGE_HIGH_Pos))
 758:Generated_Source\PSoC6/Batteri_ADC.h **** 
 759:Generated_Source\PSoC6/Batteri_ADC.h ****     #define Batteri_ADC_CFG2_RANGE_COND_INIT   (cy_en_sar_range_detect_condition_t)Batteri_ADC_CFG2
 760:Generated_Source\PSoC6/Batteri_ADC.h **** 
 761:Generated_Source\PSoC6/Batteri_ADC.h ****     /* Misc Config
 762:Generated_Source\PSoC6/Batteri_ADC.h ****         [0] - Freerunning: Set if the sample mode is freerunning
 763:Generated_Source\PSoC6/Batteri_ADC.h ****     */
 764:Generated_Source\PSoC6/Batteri_ADC.h ****     #define Batteri_ADC_CFG2_MISC_CONFIG_INIT \
 765:Generated_Source\PSoC6/Batteri_ADC.h ****             (Batteri_ADC_CFG2_FREERUNNING)
 766:Generated_Source\PSoC6/Batteri_ADC.h **** #endif /* Batteri_ADC_TOTAL_CONFIGS > 2 */
 767:Generated_Source\PSoC6/Batteri_ADC.h **** 
 768:Generated_Source\PSoC6/Batteri_ADC.h **** /* ************************************************************************** */
 769:Generated_Source\PSoC6/Batteri_ADC.h **** /* End configuration 2 calculated defines                                     */
 770:Generated_Source\PSoC6/Batteri_ADC.h **** /* ************************************************************************** */
 771:Generated_Source\PSoC6/Batteri_ADC.h **** 
 772:Generated_Source\PSoC6/Batteri_ADC.h **** /* ************************************************************************** */
 773:Generated_Source\PSoC6/Batteri_ADC.h **** /* Begin configuration 3 calculated defines                                   */
 774:Generated_Source\PSoC6/Batteri_ADC.h **** /* ************************************************************************** */
 775:Generated_Source\PSoC6/Batteri_ADC.h **** #if(Batteri_ADC_TOTAL_CONFIGS > 3)
 776:Generated_Source\PSoC6/Batteri_ADC.h ****     #define Batteri_ADC_CFG3_SAMPLE_TIME01_INIT \
 777:Generated_Source\PSoC6/Batteri_ADC.h ****             ((Batteri_ADC_CFG3_APERTURE_TIME0 \
 778:Generated_Source\PSoC6/Batteri_ADC.h ****             << SAR_SAMPLE_TIME01_SAMPLE_TIME0_Pos) \
 779:Generated_Source\PSoC6/Batteri_ADC.h ****             | (Batteri_ADC_CFG3_APERTURE_TIME1 \
 780:Generated_Source\PSoC6/Batteri_ADC.h ****             << SAR_SAMPLE_TIME01_SAMPLE_TIME1_Pos))
 781:Generated_Source\PSoC6/Batteri_ADC.h **** 
 782:Generated_Source\PSoC6/Batteri_ADC.h ****     #define Batteri_ADC_CFG3_SAMPLE_TIME23_INIT \
 783:Generated_Source\PSoC6/Batteri_ADC.h ****             ((Batteri_ADC_CFG3_APERTURE_TIME2 \
 784:Generated_Source\PSoC6/Batteri_ADC.h ****             << SAR_SAMPLE_TIME23_SAMPLE_TIME2_Pos) \
 785:Generated_Source\PSoC6/Batteri_ADC.h ****             | (Batteri_ADC_CFG3_APERTURE_TIME3 \
 786:Generated_Source\PSoC6/Batteri_ADC.h ****             << SAR_SAMPLE_TIME23_SAMPLE_TIME3_Pos))
 787:Generated_Source\PSoC6/Batteri_ADC.h **** 
 788:Generated_Source\PSoC6/Batteri_ADC.h ****     /* Enable soc pin if used */
 789:Generated_Source\PSoC6/Batteri_ADC.h ****     #define Batteri_ADC_CFG3_DSI_TRIGGER_EN_INIT \
 790:Generated_Source\PSoC6/Batteri_ADC.h ****             (Batteri_ADC_CFG3_USE_SOC \
ARM GAS  C:\Users\cring\AppData\Local\Temp\ccGHmfvv.s 			page 16


 791:Generated_Source\PSoC6/Batteri_ADC.h ****              << SAR_SAMPLE_CTRL_DSI_TRIGGER_EN_Pos)
 792:Generated_Source\PSoC6/Batteri_ADC.h **** 
 793:Generated_Source\PSoC6/Batteri_ADC.h ****     /* Set soc operation to edge or level based on sample mode */
 794:Generated_Source\PSoC6/Batteri_ADC.h ****     #if(Batteri_ADC_CFG3_FREERUNNING == Batteri_ADC_FREERUNNING)
 795:Generated_Source\PSoC6/Batteri_ADC.h ****         #define Batteri_ADC_CFG3_DSI_TRIGGER_LEVEL_INIT    (SAR_SAMPLE_CTRL_DSI_TRIGGER_LEVEL_Msk)
 796:Generated_Source\PSoC6/Batteri_ADC.h ****     #else /* Edge trigger */
 797:Generated_Source\PSoC6/Batteri_ADC.h ****         #define Batteri_ADC_CFG3_DSI_TRIGGER_LEVEL_INIT    (0u)
 798:Generated_Source\PSoC6/Batteri_ADC.h ****     #endif /* End Batteri_ADC_CFG3_FREERUNNING == Batteri_ADC_FREERUNNING */
 799:Generated_Source\PSoC6/Batteri_ADC.h **** 
 800:Generated_Source\PSoC6/Batteri_ADC.h ****     /* Set SE_NEG_INPUT  */
 801:Generated_Source\PSoC6/Batteri_ADC.h ****     #if(Batteri_ADC_CFG3_VNEG_INPUT_SEL == Batteri_ADC_NEG_SEL_VSSA_KELVIN)
 802:Generated_Source\PSoC6/Batteri_ADC.h ****         #define Batteri_ADC_CFG3_SE_NEG_INPUT_INIT \
 803:Generated_Source\PSoC6/Batteri_ADC.h ****             ((uint32)(Batteri_ADC_NEG_SEL_VSSA_KELVIN \
 804:Generated_Source\PSoC6/Batteri_ADC.h ****             << SAR_CTRL_NEG_SEL_Pos ))
 805:Generated_Source\PSoC6/Batteri_ADC.h ****     #elif(Batteri_ADC_CFG3_VNEG_INPUT_SEL == Batteri_ADC_NEG_SEL_VREF)
 806:Generated_Source\PSoC6/Batteri_ADC.h ****         #define Batteri_ADC_CFG3_SE_NEG_INPUT_INIT     (Batteri_ADC_NEG_SEL_VREF \
 807:Generated_Source\PSoC6/Batteri_ADC.h ****                                                                 << SAR_CTRL_NEG_SEL_Pos )
 808:Generated_Source\PSoC6/Batteri_ADC.h ****     #elif (Batteri_ADC_CFG3_SINGLE_PRESENT != 0u)
 809:Generated_Source\PSoC6/Batteri_ADC.h ****         #define Batteri_ADC_CFG3_SE_NEG_INPUT_INIT         Batteri_ADC_CFG3_NEG_OTHER
 810:Generated_Source\PSoC6/Batteri_ADC.h ****     #else
 811:Generated_Source\PSoC6/Batteri_ADC.h ****         #define Batteri_ADC_CFG3_SE_NEG_INPUT_INIT         0u
 812:Generated_Source\PSoC6/Batteri_ADC.h ****     #endif /* Batteri_ADC_CFG3_VNEG_INPUT_SEL == Batteri_ADC_NEG_SEL_VSSA_KELVIN */
 813:Generated_Source\PSoC6/Batteri_ADC.h **** 
 814:Generated_Source\PSoC6/Batteri_ADC.h ****     #define Batteri_ADC_CFG3_NEG_OTHER                 (uint16)((uint16)Batteri_ADC_SARMUX__VNEG3 <
 815:Generated_Source\PSoC6/Batteri_ADC.h **** 
 816:Generated_Source\PSoC6/Batteri_ADC.h ****     #define Batteri_ADC_CFG3_SWITCH_CONF_INIT          0u
 817:Generated_Source\PSoC6/Batteri_ADC.h **** 
 818:Generated_Source\PSoC6/Batteri_ADC.h ****     /* If the SAR is configured for multiple channels, always set SAR_HW_CTRL_NEGVREF to 1 */
 819:Generated_Source\PSoC6/Batteri_ADC.h ****     #define Batteri_ADC_CFG3_HW_CTRL_NEGVREF_INIT      SAR_CTRL_SAR_HW_CTRL_NEGVREF_Msk
 820:Generated_Source\PSoC6/Batteri_ADC.h **** 
 821:Generated_Source\PSoC6/Batteri_ADC.h ****     #define Batteri_ADC_CFG3_POWER_INIT  (Batteri_ADC_PWR_CTRL_VREF_NORMAL_PWR)
 822:Generated_Source\PSoC6/Batteri_ADC.h **** 
 823:Generated_Source\PSoC6/Batteri_ADC.h ****     /* SAMPLE_CTRL initial values */
 824:Generated_Source\PSoC6/Batteri_ADC.h ****     #define Batteri_ADC_CFG3_SE_RESULT_FORMAT_INIT \
 825:Generated_Source\PSoC6/Batteri_ADC.h ****             (Batteri_ADC_CFG3_SINGLE_ENDED_FORMAT \
 826:Generated_Source\PSoC6/Batteri_ADC.h ****             << SAR_SAMPLE_CTRL_SINGLE_ENDED_SIGNED_Pos)
 827:Generated_Source\PSoC6/Batteri_ADC.h **** 
 828:Generated_Source\PSoC6/Batteri_ADC.h ****     #define Batteri_ADC_CFG3_DIFF_RESULT_FORMAT_INIT \
 829:Generated_Source\PSoC6/Batteri_ADC.h ****             (Batteri_ADC_CFG3_DIFFERENTIAL_FORMAT \
 830:Generated_Source\PSoC6/Batteri_ADC.h ****             << SAR_SAMPLE_CTRL_DIFFERENTIAL_SIGNED_Pos)
 831:Generated_Source\PSoC6/Batteri_ADC.h **** 
 832:Generated_Source\PSoC6/Batteri_ADC.h ****     #define Batteri_ADC_CFG3_AVG_SAMPLES_NUM_INIT \
 833:Generated_Source\PSoC6/Batteri_ADC.h ****             (Batteri_ADC_CFG3_SAMPLES_AVERAGED \
 834:Generated_Source\PSoC6/Batteri_ADC.h ****             << SAR_SAMPLE_CTRL_AVG_CNT_Pos)
 835:Generated_Source\PSoC6/Batteri_ADC.h **** 
 836:Generated_Source\PSoC6/Batteri_ADC.h ****     /* Combination of Average Mode and Average Shift */
 837:Generated_Source\PSoC6/Batteri_ADC.h ****     #define Batteri_ADC_CFG3_AVG_MODE_INIT \
 838:Generated_Source\PSoC6/Batteri_ADC.h ****             (Batteri_ADC_CFG3_AVGERAGING_MODE \
 839:Generated_Source\PSoC6/Batteri_ADC.h ****             << SAR_SAMPLE_CTRL_AVG_SHIFT_Pos)
 840:Generated_Source\PSoC6/Batteri_ADC.h **** 
 841:Generated_Source\PSoC6/Batteri_ADC.h ****     #define Batteri_ADC_CFG3_TRIGGER_OUT_INIT      (0u)
 842:Generated_Source\PSoC6/Batteri_ADC.h ****     #define Batteri_ADC_CFG3_UAB_SCAN_MODE_INIT    (0u)
 843:Generated_Source\PSoC6/Batteri_ADC.h **** 
 844:Generated_Source\PSoC6/Batteri_ADC.h ****     #define Batteri_ADC_CFG3_VREF_POWER_INIT  \
 845:Generated_Source\PSoC6/Batteri_ADC.h ****             (Batteri_ADC_CFG3_VREF_PWR \
 846:Generated_Source\PSoC6/Batteri_ADC.h ****             << SAR_CTRL_PWR_CTRL_VREF_Pos)
 847:Generated_Source\PSoC6/Batteri_ADC.h **** 
ARM GAS  C:\Users\cring\AppData\Local\Temp\ccGHmfvv.s 			page 17


 848:Generated_Source\PSoC6/Batteri_ADC.h ****     #define Batteri_ADC_CFG3_COMP_PWR_INIT  \
 849:Generated_Source\PSoC6/Batteri_ADC.h ****             (Batteri_ADC_CFG3_COMP_PWR \
 850:Generated_Source\PSoC6/Batteri_ADC.h ****             << SAR_CTRL_COMP_PWR_Pos)
 851:Generated_Source\PSoC6/Batteri_ADC.h **** 
 852:Generated_Source\PSoC6/Batteri_ADC.h ****     #define Batteri_ADC_CFG3_COMP_DLY_INIT  \
 853:Generated_Source\PSoC6/Batteri_ADC.h ****             (Batteri_ADC_CFG3_COMP_DLY \
 854:Generated_Source\PSoC6/Batteri_ADC.h ****             << SAR_CTRL_COMP_DLY_Pos)
 855:Generated_Source\PSoC6/Batteri_ADC.h **** 
 856:Generated_Source\PSoC6/Batteri_ADC.h ****     #define Batteri_ADC_CFG3_CTRL_INIT  \
 857:Generated_Source\PSoC6/Batteri_ADC.h ****             (Batteri_ADC_CFG3_VREF_POWER_INIT \
 858:Generated_Source\PSoC6/Batteri_ADC.h ****             | Batteri_ADC_CFG3_VREF_SEL_MASK \
 859:Generated_Source\PSoC6/Batteri_ADC.h ****             | Batteri_ADC_CFG3_SE_NEG_INPUT_INIT \
 860:Generated_Source\PSoC6/Batteri_ADC.h ****             | Batteri_ADC_CFG3_HW_CTRL_NEGVREF_INIT \
 861:Generated_Source\PSoC6/Batteri_ADC.h ****             | Batteri_ADC_CFG3_COMP_DLY_INIT \
 862:Generated_Source\PSoC6/Batteri_ADC.h ****             | SAR_CTRL_REFBUF_EN_Msk \
 863:Generated_Source\PSoC6/Batteri_ADC.h ****             | Batteri_ADC_CFG3_COMP_PWR_INIT \
 864:Generated_Source\PSoC6/Batteri_ADC.h ****             | SAR_CTRL_DSI_SYNC_CONFIG_Msk  \
 865:Generated_Source\PSoC6/Batteri_ADC.h ****             | Batteri_ADC_CFG3_SWITCH_CONF_INIT )
 866:Generated_Source\PSoC6/Batteri_ADC.h **** 
 867:Generated_Source\PSoC6/Batteri_ADC.h **** 
 868:Generated_Source\PSoC6/Batteri_ADC.h ****     #define Batteri_ADC_CFG3_SAMPLE_CTRL_INIT \
 869:Generated_Source\PSoC6/Batteri_ADC.h ****             (Batteri_ADC_CFG3_SE_RESULT_FORMAT_INIT \
 870:Generated_Source\PSoC6/Batteri_ADC.h ****             | Batteri_ADC_CFG3_DIFF_RESULT_FORMAT_INIT \
 871:Generated_Source\PSoC6/Batteri_ADC.h ****             | Batteri_ADC_CFG3_AVG_SAMPLES_NUM_INIT \
 872:Generated_Source\PSoC6/Batteri_ADC.h ****             | Batteri_ADC_CFG3_AVG_MODE_INIT \
 873:Generated_Source\PSoC6/Batteri_ADC.h ****             | Batteri_ADC_CFG3_DSI_TRIGGER_LEVEL_INIT \
 874:Generated_Source\PSoC6/Batteri_ADC.h ****             | Batteri_ADC_CFG3_DSI_TRIGGER_EN_INIT \
 875:Generated_Source\PSoC6/Batteri_ADC.h ****             | Batteri_ADC_CFG3_UAB_SCAN_MODE_INIT \
 876:Generated_Source\PSoC6/Batteri_ADC.h ****             | SAR_SAMPLE_CTRL_VALID_IGNORE_Msk \
 877:Generated_Source\PSoC6/Batteri_ADC.h ****             | Batteri_ADC_CFG3_TRIGGER_OUT_INIT \
 878:Generated_Source\PSoC6/Batteri_ADC.h ****             | SAR_SAMPLE_CTRL_EOS_DSI_OUT_EN_Msk \
 879:Generated_Source\PSoC6/Batteri_ADC.h ****     )
 880:Generated_Source\PSoC6/Batteri_ADC.h **** 
 881:Generated_Source\PSoC6/Batteri_ADC.h ****     #define Batteri_ADC_CFG3_RANGE_THRES_INIT \
 882:Generated_Source\PSoC6/Batteri_ADC.h ****             (Batteri_ADC_CFG3_LOW_LIMIT \
 883:Generated_Source\PSoC6/Batteri_ADC.h ****             | (uint32)((uint32)Batteri_ADC_CFG3_HIGH_LIMIT \
 884:Generated_Source\PSoC6/Batteri_ADC.h ****             << SAR_RANGE_THRES_RANGE_HIGH_Pos))
 885:Generated_Source\PSoC6/Batteri_ADC.h **** 
 886:Generated_Source\PSoC6/Batteri_ADC.h ****     #define Batteri_ADC_CFG3_RANGE_COND_INIT   (cy_en_sar_range_detect_condition_t)Batteri_ADC_CFG3
 887:Generated_Source\PSoC6/Batteri_ADC.h **** 
 888:Generated_Source\PSoC6/Batteri_ADC.h ****     /* Misc Config
 889:Generated_Source\PSoC6/Batteri_ADC.h ****         [0] - Freerunning: Set if the sample mode is freerunning
 890:Generated_Source\PSoC6/Batteri_ADC.h ****     */
 891:Generated_Source\PSoC6/Batteri_ADC.h ****     #define Batteri_ADC_CFG3_MISC_CONFIG_INIT \
 892:Generated_Source\PSoC6/Batteri_ADC.h ****             (Batteri_ADC_CFG3_FREERUNNING )
 893:Generated_Source\PSoC6/Batteri_ADC.h **** 
 894:Generated_Source\PSoC6/Batteri_ADC.h **** #endif /* Batteri_ADC_TOTAL_CONFIGS > 3 */
 895:Generated_Source\PSoC6/Batteri_ADC.h **** 
 896:Generated_Source\PSoC6/Batteri_ADC.h **** /* ************************************************************************** */
 897:Generated_Source\PSoC6/Batteri_ADC.h **** /* End configuration 3 calculated defines                                     */
 898:Generated_Source\PSoC6/Batteri_ADC.h **** /* ************************************************************************** */
 899:Generated_Source\PSoC6/Batteri_ADC.h **** 
 900:Generated_Source\PSoC6/Batteri_ADC.h **** /******************************************************************************
 901:Generated_Source\PSoC6/Batteri_ADC.h **** * Function Name: Batteri_ADC_Enable
 902:Generated_Source\PSoC6/Batteri_ADC.h **** ****************************************************************************//*
 903:Generated_Source\PSoC6/Batteri_ADC.h **** *
 904:Generated_Source\PSoC6/Batteri_ADC.h **** * \brief Enables the component.
ARM GAS  C:\Users\cring\AppData\Local\Temp\ccGHmfvv.s 			page 18


 905:Generated_Source\PSoC6/Batteri_ADC.h **** *
 906:Generated_Source\PSoC6/Batteri_ADC.h **** * \param None
 907:Generated_Source\PSoC6/Batteri_ADC.h **** *
 908:Generated_Source\PSoC6/Batteri_ADC.h **** * \return None
 909:Generated_Source\PSoC6/Batteri_ADC.h **** *
 910:Generated_Source\PSoC6/Batteri_ADC.h **** * \sideeffect
 911:Generated_Source\PSoC6/Batteri_ADC.h **** *  None
 912:Generated_Source\PSoC6/Batteri_ADC.h **** *
 913:Generated_Source\PSoC6/Batteri_ADC.h **** *******************************************************************************/
 914:Generated_Source\PSoC6/Batteri_ADC.h **** __STATIC_INLINE void Batteri_ADC_Enable(void)
 915:Generated_Source\PSoC6/Batteri_ADC.h **** {
 916:Generated_Source\PSoC6/Batteri_ADC.h ****     Cy_SAR_Enable(Batteri_ADC_SAR__HW);
 917:Generated_Source\PSoC6/Batteri_ADC.h **** }
 918:Generated_Source\PSoC6/Batteri_ADC.h **** 
 919:Generated_Source\PSoC6/Batteri_ADC.h **** /*******************************************************************************
 920:Generated_Source\PSoC6/Batteri_ADC.h **** * Function Name: Batteri_ADC_Stop
 921:Generated_Source\PSoC6/Batteri_ADC.h **** ****************************************************************************//**
 922:Generated_Source\PSoC6/Batteri_ADC.h **** *
 923:Generated_Source\PSoC6/Batteri_ADC.h **** * \brief This function stops ADC conversions and puts the ADC into its lowest
 924:Generated_Source\PSoC6/Batteri_ADC.h **** * power mode.
 925:Generated_Source\PSoC6/Batteri_ADC.h **** *
 926:Generated_Source\PSoC6/Batteri_ADC.h **** * \param None
 927:Generated_Source\PSoC6/Batteri_ADC.h **** *
 928:Generated_Source\PSoC6/Batteri_ADC.h **** * \return None
 929:Generated_Source\PSoC6/Batteri_ADC.h **** *
 930:Generated_Source\PSoC6/Batteri_ADC.h **** * \sideeffect
 931:Generated_Source\PSoC6/Batteri_ADC.h **** * Do not use the Batteri_ADC_Stop() API to halt conversions. Instead use the
 932:Generated_Source\PSoC6/Batteri_ADC.h **** * Batteri_ADC_StopConvert() API. If you use the Batteri_ADC_Stop() API
 933:Generated_Source\PSoC6/Batteri_ADC.h **** * to halt conversions then later use the Batteri_ADC_Start() and
 934:Generated_Source\PSoC6/Batteri_ADC.h **** * Batteri_ADC_StartConvert() APIs to resume conversions, the first channel
 935:Generated_Source\PSoC6/Batteri_ADC.h **** * of the scan may be corrupt. The Batteri_ADC_StopConvert() API will enable
 936:Generated_Source\PSoC6/Batteri_ADC.h **** * the Batteri_ADC to complete the current scan of channels. After the
 937:Generated_Source\PSoC6/Batteri_ADC.h **** * channel scan is complete, the Batteri_ADC will stop all conversions, which
 938:Generated_Source\PSoC6/Batteri_ADC.h **** * can be detected by the use of an ISR or the Batteri_ADC_IsEndConversion()
 939:Generated_Source\PSoC6/Batteri_ADC.h **** * function.
 940:Generated_Source\PSoC6/Batteri_ADC.h **** *
 941:Generated_Source\PSoC6/Batteri_ADC.h **** *******************************************************************************/
 942:Generated_Source\PSoC6/Batteri_ADC.h **** __STATIC_INLINE void Batteri_ADC_Stop(void)
 943:Generated_Source\PSoC6/Batteri_ADC.h **** {
 944:Generated_Source\PSoC6/Batteri_ADC.h ****     Cy_SAR_Disable(Batteri_ADC_SAR__HW);
 945:Generated_Source\PSoC6/Batteri_ADC.h **** }
 946:Generated_Source\PSoC6/Batteri_ADC.h **** 
 947:Generated_Source\PSoC6/Batteri_ADC.h **** /*******************************************************************************
 948:Generated_Source\PSoC6/Batteri_ADC.h **** * Function Name: Batteri_ADC_StopConvert
 949:Generated_Source\PSoC6/Batteri_ADC.h **** ****************************************************************************//**
 950:Generated_Source\PSoC6/Batteri_ADC.h **** *
 951:Generated_Source\PSoC6/Batteri_ADC.h **** * \brief Forces the Batteri_ADC to stop conversions. If a conversion is
 952:Generated_Source\PSoC6/Batteri_ADC.h **** * currently executing, that conversion will complete, but no further conversions
 953:Generated_Source\PSoC6/Batteri_ADC.h **** * will occur.
 954:Generated_Source\PSoC6/Batteri_ADC.h **** *
 955:Generated_Source\PSoC6/Batteri_ADC.h **** * \param None
 956:Generated_Source\PSoC6/Batteri_ADC.h **** *
 957:Generated_Source\PSoC6/Batteri_ADC.h **** * \return None
 958:Generated_Source\PSoC6/Batteri_ADC.h **** *
 959:Generated_Source\PSoC6/Batteri_ADC.h **** * \sideeffect None
 960:Generated_Source\PSoC6/Batteri_ADC.h **** *
 961:Generated_Source\PSoC6/Batteri_ADC.h **** *******************************************************************************/
ARM GAS  C:\Users\cring\AppData\Local\Temp\ccGHmfvv.s 			page 19


 962:Generated_Source\PSoC6/Batteri_ADC.h **** __STATIC_INLINE void Batteri_ADC_StopConvert(void)
 963:Generated_Source\PSoC6/Batteri_ADC.h **** {
 964:Generated_Source\PSoC6/Batteri_ADC.h ****     Cy_SAR_StopConvert(Batteri_ADC_SAR__HW);
  52              		.loc 2 964 0
  53 0010 1848     		ldr	r0, .L5
  54 0012 FFF7FEFF 		bl	Cy_SAR_StopConvert
  55              	.LVL3:
  56              	.LBE20:
  57              	.LBE19:
  58              	.LBB21:
  59              	.LBB22:
 965:Generated_Source\PSoC6/Batteri_ADC.h **** }
 966:Generated_Source\PSoC6/Batteri_ADC.h **** 
 967:Generated_Source\PSoC6/Batteri_ADC.h **** /*******************************************************************************
 968:Generated_Source\PSoC6/Batteri_ADC.h **** * Function Name: Batteri_ADC_GetResult16
 969:Generated_Source\PSoC6/Batteri_ADC.h **** ****************************************************************************//**
 970:Generated_Source\PSoC6/Batteri_ADC.h **** *
 971:Generated_Source\PSoC6/Batteri_ADC.h **** * \brief Gets the data available in the channel result data register
 972:Generated_Source\PSoC6/Batteri_ADC.h **** *
 973:Generated_Source\PSoC6/Batteri_ADC.h **** * \param chan The Batteri_ADC channel to read the result from. The first
 974:Generated_Source\PSoC6/Batteri_ADC.h **** * channel is 0.
 975:Generated_Source\PSoC6/Batteri_ADC.h **** *
 976:Generated_Source\PSoC6/Batteri_ADC.h **** * \return Returns converted data as a signed 16-bit integer.
 977:Generated_Source\PSoC6/Batteri_ADC.h **** *
 978:Generated_Source\PSoC6/Batteri_ADC.h **** * \sideeffect None
 979:Generated_Source\PSoC6/Batteri_ADC.h **** *
 980:Generated_Source\PSoC6/Batteri_ADC.h **** *******************************************************************************/
 981:Generated_Source\PSoC6/Batteri_ADC.h **** __STATIC_INLINE int16_t Batteri_ADC_GetResult16(uint32_t chan)
 982:Generated_Source\PSoC6/Batteri_ADC.h **** {
 983:Generated_Source\PSoC6/Batteri_ADC.h ****     /* Halt CPU in debug mode if channel is out of valid range */
 984:Generated_Source\PSoC6/Batteri_ADC.h ****     CY_ASSERT(chan < Batteri_ADC_allConfigs[Batteri_ADC_currentConfig].numChannels);
  60              		.loc 2 984 0
  61 0016 184B     		ldr	r3, .L5+4
  62 0018 1B68     		ldr	r3, [r3]
  63 001a 03EB8303 		add	r3, r3, r3, lsl #2
  64 001e 9A00     		lsls	r2, r3, #2
  65 0020 164B     		ldr	r3, .L5+8
  66 0022 1A44     		add	r2, r2, r3
  67 0024 5368     		ldr	r3, [r2, #4]
  68 0026 23B9     		cbnz	r3, .L2
  69 0028 4FF47671 		mov	r1, #984
  70 002c 1448     		ldr	r0, .L5+12
  71 002e FFF7FEFF 		bl	Cy_SysLib_AssertFailed
  72              	.LVL4:
  73              	.L2:
 985:Generated_Source\PSoC6/Batteri_ADC.h **** 
 986:Generated_Source\PSoC6/Batteri_ADC.h ****     return Cy_SAR_GetResult16(Batteri_ADC_SAR__HW, chan);
  74              		.loc 2 986 0
  75 0032 0021     		movs	r1, #0
  76 0034 0F48     		ldr	r0, .L5
  77 0036 FFF7FEFF 		bl	Cy_SAR_GetResult16
  78              	.LVL5:
  79 003a 0546     		mov	r5, r0
  80              	.LVL6:
  81              	.LBE22:
  82              	.LBE21:
  83              	.LBB23:
ARM GAS  C:\Users\cring\AppData\Local\Temp\ccGHmfvv.s 			page 20


  84              	.LBB24:
 987:Generated_Source\PSoC6/Batteri_ADC.h **** }
 988:Generated_Source\PSoC6/Batteri_ADC.h **** 
 989:Generated_Source\PSoC6/Batteri_ADC.h **** /*******************************************************************************
 990:Generated_Source\PSoC6/Batteri_ADC.h **** * Function Name: Batteri_ADC_GetResult32
 991:Generated_Source\PSoC6/Batteri_ADC.h **** ****************************************************************************//**
 992:Generated_Source\PSoC6/Batteri_ADC.h **** *
 993:Generated_Source\PSoC6/Batteri_ADC.h **** * \brief Gets the data available in the channel result data register.
 994:Generated_Source\PSoC6/Batteri_ADC.h **** *
 995:Generated_Source\PSoC6/Batteri_ADC.h **** * \param chan The Batteri_ADC channel to read the result from. The first
 996:Generated_Source\PSoC6/Batteri_ADC.h **** * channel is 0.
 997:Generated_Source\PSoC6/Batteri_ADC.h **** *
 998:Generated_Source\PSoC6/Batteri_ADC.h **** * \return Returns converted data as a signed 32-bit integer.
 999:Generated_Source\PSoC6/Batteri_ADC.h **** *
1000:Generated_Source\PSoC6/Batteri_ADC.h **** * \sideeffect None
1001:Generated_Source\PSoC6/Batteri_ADC.h **** *
1002:Generated_Source\PSoC6/Batteri_ADC.h **** *******************************************************************************/
1003:Generated_Source\PSoC6/Batteri_ADC.h **** __STATIC_INLINE int32_t Batteri_ADC_GetResult32(uint32_t chan)
1004:Generated_Source\PSoC6/Batteri_ADC.h **** {
1005:Generated_Source\PSoC6/Batteri_ADC.h ****     int32_t finalResult;
1006:Generated_Source\PSoC6/Batteri_ADC.h **** 
1007:Generated_Source\PSoC6/Batteri_ADC.h ****     /* Halt CPU in debug mode if channel is out of valid range */
1008:Generated_Source\PSoC6/Batteri_ADC.h ****     CY_ASSERT(chan < Batteri_ADC_allConfigs[Batteri_ADC_currentConfig].numChannels);
1009:Generated_Source\PSoC6/Batteri_ADC.h **** 
1010:Generated_Source\PSoC6/Batteri_ADC.h ****     finalResult = Cy_SAR_GetResult32(Batteri_ADC_SAR__HW, chan);
1011:Generated_Source\PSoC6/Batteri_ADC.h **** 
1012:Generated_Source\PSoC6/Batteri_ADC.h ****     return finalResult;
1013:Generated_Source\PSoC6/Batteri_ADC.h **** }
1014:Generated_Source\PSoC6/Batteri_ADC.h **** 
1015:Generated_Source\PSoC6/Batteri_ADC.h **** /*******************************************************************************
1016:Generated_Source\PSoC6/Batteri_ADC.h **** * Function Name: Batteri_ADC_SetLowLimit
1017:Generated_Source\PSoC6/Batteri_ADC.h **** ****************************************************************************//**
1018:Generated_Source\PSoC6/Batteri_ADC.h **** *
1019:Generated_Source\PSoC6/Batteri_ADC.h **** * \brief Sets the low limit parameter for a limit condition.
1020:Generated_Source\PSoC6/Batteri_ADC.h **** *
1021:Generated_Source\PSoC6/Batteri_ADC.h **** * \param lowLimit The low limit for a limit condition.
1022:Generated_Source\PSoC6/Batteri_ADC.h **** *
1023:Generated_Source\PSoC6/Batteri_ADC.h **** * \return None
1024:Generated_Source\PSoC6/Batteri_ADC.h **** *
1025:Generated_Source\PSoC6/Batteri_ADC.h **** * \sideeffect None
1026:Generated_Source\PSoC6/Batteri_ADC.h **** *
1027:Generated_Source\PSoC6/Batteri_ADC.h **** *******************************************************************************/
1028:Generated_Source\PSoC6/Batteri_ADC.h **** __STATIC_INLINE void Batteri_ADC_SetLowLimit(uint32_t lowLimit)
1029:Generated_Source\PSoC6/Batteri_ADC.h **** {
1030:Generated_Source\PSoC6/Batteri_ADC.h ****     Cy_SAR_SetLowLimit(Batteri_ADC_SAR__HW, lowLimit);
1031:Generated_Source\PSoC6/Batteri_ADC.h **** }
1032:Generated_Source\PSoC6/Batteri_ADC.h **** 
1033:Generated_Source\PSoC6/Batteri_ADC.h **** /*******************************************************************************
1034:Generated_Source\PSoC6/Batteri_ADC.h **** * Function Name: Batteri_ADC_SetHighLimit
1035:Generated_Source\PSoC6/Batteri_ADC.h **** ****************************************************************************//**
1036:Generated_Source\PSoC6/Batteri_ADC.h **** *
1037:Generated_Source\PSoC6/Batteri_ADC.h **** * \brief Sets the high limit parameter for a limit condition.
1038:Generated_Source\PSoC6/Batteri_ADC.h **** *
1039:Generated_Source\PSoC6/Batteri_ADC.h **** * \param highLimit The high limit for a limit condition.
1040:Generated_Source\PSoC6/Batteri_ADC.h **** *
1041:Generated_Source\PSoC6/Batteri_ADC.h **** * \return None
1042:Generated_Source\PSoC6/Batteri_ADC.h **** *
ARM GAS  C:\Users\cring\AppData\Local\Temp\ccGHmfvv.s 			page 21


1043:Generated_Source\PSoC6/Batteri_ADC.h **** * \sideeffect None
1044:Generated_Source\PSoC6/Batteri_ADC.h **** *
1045:Generated_Source\PSoC6/Batteri_ADC.h **** *******************************************************************************/
1046:Generated_Source\PSoC6/Batteri_ADC.h **** __STATIC_INLINE void Batteri_ADC_SetHighLimit(uint32_t highLimit)
1047:Generated_Source\PSoC6/Batteri_ADC.h **** {
1048:Generated_Source\PSoC6/Batteri_ADC.h ****     Cy_SAR_SetHighLimit(Batteri_ADC_SAR__HW, highLimit);
1049:Generated_Source\PSoC6/Batteri_ADC.h **** }
1050:Generated_Source\PSoC6/Batteri_ADC.h **** 
1051:Generated_Source\PSoC6/Batteri_ADC.h **** /*******************************************************************************
1052:Generated_Source\PSoC6/Batteri_ADC.h **** * Function Name: Batteri_ADC_SetLimitMask
1053:Generated_Source\PSoC6/Batteri_ADC.h **** ****************************************************************************//**
1054:Generated_Source\PSoC6/Batteri_ADC.h **** *
1055:Generated_Source\PSoC6/Batteri_ADC.h **** * \brief Sets the channel limit condition mask.
1056:Generated_Source\PSoC6/Batteri_ADC.h **** *
1057:Generated_Source\PSoC6/Batteri_ADC.h **** *
1058:Generated_Source\PSoC6/Batteri_ADC.h **** * \param limitMask
1059:Generated_Source\PSoC6/Batteri_ADC.h **** * Sets which channels can cause a limit condition interrupt.
1060:Generated_Source\PSoC6/Batteri_ADC.h **** * Bit N of the mask enables the limit condition interrupt for channel N.
1061:Generated_Source\PSoC6/Batteri_ADC.h **** * The limitMask cannot be larger than the number of channels.
1062:Generated_Source\PSoC6/Batteri_ADC.h **** * If a channel is not enabled, it cannot cause any interrupts.
1063:Generated_Source\PSoC6/Batteri_ADC.h **** *
1064:Generated_Source\PSoC6/Batteri_ADC.h **** * \return None
1065:Generated_Source\PSoC6/Batteri_ADC.h **** *
1066:Generated_Source\PSoC6/Batteri_ADC.h **** * \sideeffect None
1067:Generated_Source\PSoC6/Batteri_ADC.h **** *
1068:Generated_Source\PSoC6/Batteri_ADC.h **** *******************************************************************************/
1069:Generated_Source\PSoC6/Batteri_ADC.h **** __STATIC_INLINE void Batteri_ADC_SetLimitMask(uint32_t limitMask)
1070:Generated_Source\PSoC6/Batteri_ADC.h **** {
1071:Generated_Source\PSoC6/Batteri_ADC.h ****     Cy_SAR_SetRangeInterruptMask(Batteri_ADC_SAR__HW, limitMask);
1072:Generated_Source\PSoC6/Batteri_ADC.h **** }
1073:Generated_Source\PSoC6/Batteri_ADC.h **** 
1074:Generated_Source\PSoC6/Batteri_ADC.h **** /*******************************************************************************
1075:Generated_Source\PSoC6/Batteri_ADC.h **** * Function Name: Batteri_ADC_SetSatMask
1076:Generated_Source\PSoC6/Batteri_ADC.h **** ****************************************************************************//**
1077:Generated_Source\PSoC6/Batteri_ADC.h **** *
1078:Generated_Source\PSoC6/Batteri_ADC.h **** * \brief Sets the channel saturation event mask.
1079:Generated_Source\PSoC6/Batteri_ADC.h **** *
1080:Generated_Source\PSoC6/Batteri_ADC.h **** * \param satMask
1081:Generated_Source\PSoC6/Batteri_ADC.h **** * Sets which channels can cause a saturation event interrupt.
1082:Generated_Source\PSoC6/Batteri_ADC.h **** * Bit N of the mask enables the saturation event interrupt for channel N.
1083:Generated_Source\PSoC6/Batteri_ADC.h **** * The satMask cannot be larger than the number of channels.
1084:Generated_Source\PSoC6/Batteri_ADC.h **** * If a channel is not enabled, it cannot cause any interrupts.
1085:Generated_Source\PSoC6/Batteri_ADC.h **** *
1086:Generated_Source\PSoC6/Batteri_ADC.h **** * \return None
1087:Generated_Source\PSoC6/Batteri_ADC.h **** *
1088:Generated_Source\PSoC6/Batteri_ADC.h **** * \sideeffect None
1089:Generated_Source\PSoC6/Batteri_ADC.h **** *
1090:Generated_Source\PSoC6/Batteri_ADC.h **** *******************************************************************************/
1091:Generated_Source\PSoC6/Batteri_ADC.h **** __STATIC_INLINE void Batteri_ADC_SetSatMask(uint32_t satMask)
1092:Generated_Source\PSoC6/Batteri_ADC.h **** {
1093:Generated_Source\PSoC6/Batteri_ADC.h ****     Cy_SAR_SetSatInterruptMask(Batteri_ADC_SAR__HW, satMask);
1094:Generated_Source\PSoC6/Batteri_ADC.h **** }
1095:Generated_Source\PSoC6/Batteri_ADC.h **** 
1096:Generated_Source\PSoC6/Batteri_ADC.h **** /*******************************************************************************
1097:Generated_Source\PSoC6/Batteri_ADC.h **** * Function Name: Batteri_ADC_SetOffset
1098:Generated_Source\PSoC6/Batteri_ADC.h **** ****************************************************************************//**
1099:Generated_Source\PSoC6/Batteri_ADC.h **** *
ARM GAS  C:\Users\cring\AppData\Local\Temp\ccGHmfvv.s 			page 22


1100:Generated_Source\PSoC6/Batteri_ADC.h **** * \brief Sets the ADC offset that is used by the functions Batteri_ADC_CountsTo_uVolts,
1101:Generated_Source\PSoC6/Batteri_ADC.h **** * Batteri_ADC_CountsTo_mVolts, and Batteri_ADC_CountsTo_Volts.
1102:Generated_Source\PSoC6/Batteri_ADC.h **** *
1103:Generated_Source\PSoC6/Batteri_ADC.h **** * Offset is applied to counts before unit scaling and gain.  All CountsTo_[mV, uV, V]olts()
1104:Generated_Source\PSoC6/Batteri_ADC.h **** * functions use the following equation:
1105:Generated_Source\PSoC6/Batteri_ADC.h **** *     V = (Counts/AvgDivider - Offset)*TEN_VOLT/Gain
1106:Generated_Source\PSoC6/Batteri_ADC.h **** * See CountsTo_Volts() for more about this formula.
1107:Generated_Source\PSoC6/Batteri_ADC.h **** *
1108:Generated_Source\PSoC6/Batteri_ADC.h **** * To set channel 0's offset based on known V_offset_mV, use:
1109:Generated_Source\PSoC6/Batteri_ADC.h **** *     Batteri_ADC_SetOffset(0uL, -1 * V_offset_mV * (1uL << (Resolution - 1)) / V_ref_mV);
1110:Generated_Source\PSoC6/Batteri_ADC.h **** *
1111:Generated_Source\PSoC6/Batteri_ADC.h **** * \param chan Batteri_ADC channel number.
1112:Generated_Source\PSoC6/Batteri_ADC.h **** *
1113:Generated_Source\PSoC6/Batteri_ADC.h **** * \param offset This value is a measured value when the inputs are shorted or
1114:Generated_Source\PSoC6/Batteri_ADC.h **** * connected to the same input voltage.
1115:Generated_Source\PSoC6/Batteri_ADC.h **** *
1116:Generated_Source\PSoC6/Batteri_ADC.h **** * \return cy_en_sar_status_t
1117:Generated_Source\PSoC6/Batteri_ADC.h **** * - CY_SAR_BAD_PARAM: channel number is equal to or greater than CY_SAR_MAX_NUM_CHANNELS
1118:Generated_Source\PSoC6/Batteri_ADC.h **** * - CY_SAR_SUCCESS: offset was set successfully
1119:Generated_Source\PSoC6/Batteri_ADC.h **** *
1120:Generated_Source\PSoC6/Batteri_ADC.h **** * \sideeffect None
1121:Generated_Source\PSoC6/Batteri_ADC.h **** *
1122:Generated_Source\PSoC6/Batteri_ADC.h **** *******************************************************************************/
1123:Generated_Source\PSoC6/Batteri_ADC.h **** __STATIC_INLINE cy_en_sar_status_t Batteri_ADC_SetOffset(uint32_t chan, int16_t offset)
1124:Generated_Source\PSoC6/Batteri_ADC.h **** {
1125:Generated_Source\PSoC6/Batteri_ADC.h ****     /* Halt CPU in debug mode if channel is out of valid range */
1126:Generated_Source\PSoC6/Batteri_ADC.h ****     CY_ASSERT(chan < Batteri_ADC_allConfigs[Batteri_ADC_currentConfig].numChannels);
1127:Generated_Source\PSoC6/Batteri_ADC.h **** 
1128:Generated_Source\PSoC6/Batteri_ADC.h ****     return Cy_SAR_SetOffset(chan, offset);
1129:Generated_Source\PSoC6/Batteri_ADC.h **** }
1130:Generated_Source\PSoC6/Batteri_ADC.h **** 
1131:Generated_Source\PSoC6/Batteri_ADC.h **** /*******************************************************************************
1132:Generated_Source\PSoC6/Batteri_ADC.h **** * Function Name: Batteri_ADC_SetGain
1133:Generated_Source\PSoC6/Batteri_ADC.h **** ****************************************************************************//**
1134:Generated_Source\PSoC6/Batteri_ADC.h **** *
1135:Generated_Source\PSoC6/Batteri_ADC.h **** * \brief Sets the Batteri_ADC gain in counts per 10 volt for the voltage
1136:Generated_Source\PSoC6/Batteri_ADC.h **** * conversion functions. This value is set by default by the reference and
1137:Generated_Source\PSoC6/Batteri_ADC.h **** * input range settings. Gain is applied after offset and unit scaling.  All
1138:Generated_Source\PSoC6/Batteri_ADC.h **** * CountsTo_[mV, uV, V]olts() functions use the following equation:
1139:Generated_Source\PSoC6/Batteri_ADC.h **** *     V = (Counts/AvgDivider - Offset)*TEN_VOLT/Gain
1140:Generated_Source\PSoC6/Batteri_ADC.h **** * See CountsTo_Volts() for more about this formula.
1141:Generated_Source\PSoC6/Batteri_ADC.h **** *
1142:Generated_Source\PSoC6/Batteri_ADC.h **** * To set channel 0's gain based on known V_ref_mV, use:
1143:Generated_Source\PSoC6/Batteri_ADC.h **** *     Batteri_ADC_SetGain(0uL, 10000 * (1uL << (Resolution - 1)) / V_ref_mV);
1144:Generated_Source\PSoC6/Batteri_ADC.h **** *
1145:Generated_Source\PSoC6/Batteri_ADC.h **** * \param chan Batteri_ADC channel number.
1146:Generated_Source\PSoC6/Batteri_ADC.h **** *
1147:Generated_Source\PSoC6/Batteri_ADC.h **** * \param adcGain Batteri_ADC gain in counts per 10 volt.
1148:Generated_Source\PSoC6/Batteri_ADC.h **** *
1149:Generated_Source\PSoC6/Batteri_ADC.h **** * \return cy_en_sar_status_t
1150:Generated_Source\PSoC6/Batteri_ADC.h **** * - CY_SAR_BAD_PARAM: channel number is equal to or greater than CY_SAR_MAX_NUM_CHANNELS
1151:Generated_Source\PSoC6/Batteri_ADC.h **** * - CY_SAR_SUCCESS: gain was set successfully
1152:Generated_Source\PSoC6/Batteri_ADC.h **** *
1153:Generated_Source\PSoC6/Batteri_ADC.h **** * \sideeffect None
1154:Generated_Source\PSoC6/Batteri_ADC.h **** *
1155:Generated_Source\PSoC6/Batteri_ADC.h **** *******************************************************************************/
1156:Generated_Source\PSoC6/Batteri_ADC.h **** __STATIC_INLINE cy_en_sar_status_t Batteri_ADC_SetGain(uint32_t chan, int32_t adcGain)
ARM GAS  C:\Users\cring\AppData\Local\Temp\ccGHmfvv.s 			page 23


1157:Generated_Source\PSoC6/Batteri_ADC.h **** {
1158:Generated_Source\PSoC6/Batteri_ADC.h ****     /* Halt CPU in debug mode if channel is out of valid range */
1159:Generated_Source\PSoC6/Batteri_ADC.h ****     CY_ASSERT(chan < Batteri_ADC_allConfigs[Batteri_ADC_currentConfig].numChannels);
1160:Generated_Source\PSoC6/Batteri_ADC.h **** 
1161:Generated_Source\PSoC6/Batteri_ADC.h ****     return Cy_SAR_SetGain(chan, adcGain);
1162:Generated_Source\PSoC6/Batteri_ADC.h **** }
1163:Generated_Source\PSoC6/Batteri_ADC.h **** 
1164:Generated_Source\PSoC6/Batteri_ADC.h **** /*******************************************************************************
1165:Generated_Source\PSoC6/Batteri_ADC.h **** * Function Name: Batteri_ADC_CountsTo_Volts
1166:Generated_Source\PSoC6/Batteri_ADC.h **** ****************************************************************************//**
1167:Generated_Source\PSoC6/Batteri_ADC.h **** *
1168:Generated_Source\PSoC6/Batteri_ADC.h **** * \brief Converts the ADC output to Volts as a float32. For example, if the ADC
1169:Generated_Source\PSoC6/Batteri_ADC.h **** * measured 0.534 volts, the return value would be 0.534.
1170:Generated_Source\PSoC6/Batteri_ADC.h **** * The calculation of voltage depends on the contents of Cy_SAR_offset[],
1171:Generated_Source\PSoC6/Batteri_ADC.h **** * Cy_SAR_countsPer10Volt[], and other parameters.  The equation used is:
1172:Generated_Source\PSoC6/Batteri_ADC.h **** *
1173:Generated_Source\PSoC6/Batteri_ADC.h **** *     V = (Counts/AvgDivider - Offset)*TEN_VOLT/Gain
1174:Generated_Source\PSoC6/Batteri_ADC.h **** * -Counts = Raw Counts from SAR register
1175:Generated_Source\PSoC6/Batteri_ADC.h **** * -AvgDivider = divider based on averaging mode
1176:Generated_Source\PSoC6/Batteri_ADC.h **** *     -Sequential, Sum: AvgDivider = number averaged
1177:Generated_Source\PSoC6/Batteri_ADC.h **** *         Note: The divider should be a maximum of 16. If using more averages,
1178:Generated_Source\PSoC6/Batteri_ADC.h **** *         pre-scale Counts by (number averaged / 16)
1179:Generated_Source\PSoC6/Batteri_ADC.h **** *     -Interleaved, Sum: AvgDivider = number averaged
1180:Generated_Source\PSoC6/Batteri_ADC.h **** *     -Sequential, Fixed: AvgDivider = 1
1181:Generated_Source\PSoC6/Batteri_ADC.h **** * -Offset = Cy_SAR_offset[]
1182:Generated_Source\PSoC6/Batteri_ADC.h **** * -TEN_VOLT = 10V constant and unit scalar.
1183:Generated_Source\PSoC6/Batteri_ADC.h **** * -Gain = Cy_SAR_countsPer10Volt[]
1184:Generated_Source\PSoC6/Batteri_ADC.h **** *
1185:Generated_Source\PSoC6/Batteri_ADC.h **** * When the Vref is based on Vdda, the value used for Vdda is set for the project
1186:Generated_Source\PSoC6/Batteri_ADC.h **** * in the System tab of the DWR.
1187:Generated_Source\PSoC6/Batteri_ADC.h **** *
1188:Generated_Source\PSoC6/Batteri_ADC.h **** * \param chan Batteri_ADC channel number.
1189:Generated_Source\PSoC6/Batteri_ADC.h **** *
1190:Generated_Source\PSoC6/Batteri_ADC.h **** * \param adcCounts Result from the Batteri_ADC conversion.
1191:Generated_Source\PSoC6/Batteri_ADC.h **** *
1192:Generated_Source\PSoC6/Batteri_ADC.h **** * \return Result in Volts.
1193:Generated_Source\PSoC6/Batteri_ADC.h **** *
1194:Generated_Source\PSoC6/Batteri_ADC.h **** * \sideeffect None
1195:Generated_Source\PSoC6/Batteri_ADC.h **** *
1196:Generated_Source\PSoC6/Batteri_ADC.h **** *******************************************************************************/
1197:Generated_Source\PSoC6/Batteri_ADC.h **** __STATIC_INLINE float32_t Batteri_ADC_CountsTo_Volts(uint32_t chan, int16_t adcCounts)
1198:Generated_Source\PSoC6/Batteri_ADC.h **** {
1199:Generated_Source\PSoC6/Batteri_ADC.h ****     /* Halt CPU in debug mode if channel is out of valid range */
1200:Generated_Source\PSoC6/Batteri_ADC.h ****     CY_ASSERT(chan < Batteri_ADC_allConfigs[Batteri_ADC_currentConfig].numChannels);
1201:Generated_Source\PSoC6/Batteri_ADC.h **** 
1202:Generated_Source\PSoC6/Batteri_ADC.h ****     return Cy_SAR_CountsTo_Volts(Batteri_ADC_SAR__HW, chan, adcCounts);
1203:Generated_Source\PSoC6/Batteri_ADC.h **** }
1204:Generated_Source\PSoC6/Batteri_ADC.h **** 
1205:Generated_Source\PSoC6/Batteri_ADC.h **** /*******************************************************************************
1206:Generated_Source\PSoC6/Batteri_ADC.h **** * Function Name: Batteri_ADC_CountsTo_mVolts
1207:Generated_Source\PSoC6/Batteri_ADC.h **** ****************************************************************************//**
1208:Generated_Source\PSoC6/Batteri_ADC.h **** *
1209:Generated_Source\PSoC6/Batteri_ADC.h **** * \brief Converts the ADC output to millivolts as an int16. For example, if the ADC
1210:Generated_Source\PSoC6/Batteri_ADC.h **** * measured 0.534 volts, the return value would be 534.
1211:Generated_Source\PSoC6/Batteri_ADC.h **** * The calculation of voltage depends on the contents of Cy_SAR_offset[],
1212:Generated_Source\PSoC6/Batteri_ADC.h **** * Cy_SAR_countsPer10Volt[], and other parameters.  The equation used is:
1213:Generated_Source\PSoC6/Batteri_ADC.h **** *
ARM GAS  C:\Users\cring\AppData\Local\Temp\ccGHmfvv.s 			page 24


1214:Generated_Source\PSoC6/Batteri_ADC.h **** *     V = (Counts/AvgDivider - Offset)*TEN_VOLT/Gain
1215:Generated_Source\PSoC6/Batteri_ADC.h **** * -Counts = Raw Counts from SAR register
1216:Generated_Source\PSoC6/Batteri_ADC.h **** * -AvgDivider = divider based on averaging mode
1217:Generated_Source\PSoC6/Batteri_ADC.h **** *     -Sequential, Sum: AvgDivider = number averaged
1218:Generated_Source\PSoC6/Batteri_ADC.h **** *         Note: The divider should be a maximum of 16. If using more averages,
1219:Generated_Source\PSoC6/Batteri_ADC.h **** *         pre-scale Counts by (number averaged / 16)
1220:Generated_Source\PSoC6/Batteri_ADC.h **** *     -Interleaved, Sum: AvgDivider = number averaged
1221:Generated_Source\PSoC6/Batteri_ADC.h **** *     -Sequential, Fixed: AvgDivider = 1
1222:Generated_Source\PSoC6/Batteri_ADC.h **** * -Offset = Cy_SAR_offset[]
1223:Generated_Source\PSoC6/Batteri_ADC.h **** * -TEN_VOLT = 10V constant and unit scalar.
1224:Generated_Source\PSoC6/Batteri_ADC.h **** * -Gain = Cy_SAR_countsPer10Volt[]
1225:Generated_Source\PSoC6/Batteri_ADC.h **** *
1226:Generated_Source\PSoC6/Batteri_ADC.h **** * When the Vref is based on Vdda, the value used for Vdda is set for the project
1227:Generated_Source\PSoC6/Batteri_ADC.h **** * in the System tab of the DWR.
1228:Generated_Source\PSoC6/Batteri_ADC.h **** *
1229:Generated_Source\PSoC6/Batteri_ADC.h **** * \param chan Batteri_ADC channel number.
1230:Generated_Source\PSoC6/Batteri_ADC.h **** *
1231:Generated_Source\PSoC6/Batteri_ADC.h **** * \param adcCounts Result from the Batteri_ADC conversion.
1232:Generated_Source\PSoC6/Batteri_ADC.h **** *
1233:Generated_Source\PSoC6/Batteri_ADC.h **** * \return Result in mV.
1234:Generated_Source\PSoC6/Batteri_ADC.h **** *
1235:Generated_Source\PSoC6/Batteri_ADC.h **** * \sideeffect None.
1236:Generated_Source\PSoC6/Batteri_ADC.h **** *
1237:Generated_Source\PSoC6/Batteri_ADC.h **** *******************************************************************************/
1238:Generated_Source\PSoC6/Batteri_ADC.h **** __STATIC_INLINE int16_t Batteri_ADC_CountsTo_mVolts(uint32_t chan, int16_t adcCounts)
1239:Generated_Source\PSoC6/Batteri_ADC.h **** {
1240:Generated_Source\PSoC6/Batteri_ADC.h ****     /* Halt CPU in debug mode if channel is out of valid range */
1241:Generated_Source\PSoC6/Batteri_ADC.h ****     CY_ASSERT(chan < Batteri_ADC_allConfigs[Batteri_ADC_currentConfig].numChannels);
  85              		.loc 2 1241 0
  86 003c 0E4B     		ldr	r3, .L5+4
  87 003e 1B68     		ldr	r3, [r3]
  88 0040 03EB8303 		add	r3, r3, r3, lsl #2
  89 0044 9A00     		lsls	r2, r3, #2
  90 0046 0D4B     		ldr	r3, .L5+8
  91 0048 1A44     		add	r2, r2, r3
  92 004a 5368     		ldr	r3, [r2, #4]
  93 004c 23B9     		cbnz	r3, .L3
  94 004e 40F2D941 		movw	r1, #1241
  95 0052 0B48     		ldr	r0, .L5+12
  96 0054 FFF7FEFF 		bl	Cy_SysLib_AssertFailed
  97              	.LVL7:
  98              	.L3:
1242:Generated_Source\PSoC6/Batteri_ADC.h **** 
1243:Generated_Source\PSoC6/Batteri_ADC.h ****     return Cy_SAR_CountsTo_mVolts(Batteri_ADC_SAR__HW, chan, adcCounts);
  99              		.loc 2 1243 0
 100 0058 064C     		ldr	r4, .L5
 101 005a 2A46     		mov	r2, r5
 102 005c 0021     		movs	r1, #0
 103 005e 2046     		mov	r0, r4
 104 0060 FFF7FEFF 		bl	Cy_SAR_CountsTo_mVolts
 105              	.LVL8:
 106              	.LBE24:
 107              	.LBE23:
  15:batteriControl.h ****     //Stopper ADC konvertering
  16:batteriControl.h ****     Batteri_ADC_StopConvert();
  17:batteriControl.h ****     //Konvertere resultatet fra Batteri ADC til mV
  18:batteriControl.h ****     mV = Batteri_ADC_CountsTo_mVolts(0, Batteri_ADC_GetResult16(0));
ARM GAS  C:\Users\cring\AppData\Local\Temp\ccGHmfvv.s 			page 25


 108              		.loc 1 18 0
 109 0064 074A     		ldr	r2, .L5+16
 110 0066 1080     		strh	r0, [r2]	@ movhi
 111              	.LVL9:
 112              	.LBB25:
 113              	.LBB26:
 114              	.LBB27:
 115              		.file 3 "Generated_Source\\PSoC6\\pdl\\drivers/peripheral/sar/cy_sar.h"
   1:Generated_Source\PSoC6\pdl\drivers/peripheral/sar/cy_sar.h **** /***************************************************************************//**
   2:Generated_Source\PSoC6\pdl\drivers/peripheral/sar/cy_sar.h **** * \file cy_sar.h
   3:Generated_Source\PSoC6\pdl\drivers/peripheral/sar/cy_sar.h **** * \version 1.20
   4:Generated_Source\PSoC6\pdl\drivers/peripheral/sar/cy_sar.h **** *
   5:Generated_Source\PSoC6\pdl\drivers/peripheral/sar/cy_sar.h **** * Header file for the SAR driver.
   6:Generated_Source\PSoC6\pdl\drivers/peripheral/sar/cy_sar.h **** *
   7:Generated_Source\PSoC6\pdl\drivers/peripheral/sar/cy_sar.h **** ********************************************************************************
   8:Generated_Source\PSoC6\pdl\drivers/peripheral/sar/cy_sar.h **** * \copyright
   9:Generated_Source\PSoC6\pdl\drivers/peripheral/sar/cy_sar.h **** * Copyright 2017-2018, Cypress Semiconductor Corporation. All rights reserved.
  10:Generated_Source\PSoC6\pdl\drivers/peripheral/sar/cy_sar.h **** * You may use this file only in accordance with the license, terms, conditions,
  11:Generated_Source\PSoC6\pdl\drivers/peripheral/sar/cy_sar.h **** * disclaimers, and limitations in the end user license agreement accompanying
  12:Generated_Source\PSoC6\pdl\drivers/peripheral/sar/cy_sar.h **** * the software package with which this file was provided.
  13:Generated_Source\PSoC6\pdl\drivers/peripheral/sar/cy_sar.h **** *******************************************************************************/
  14:Generated_Source\PSoC6\pdl\drivers/peripheral/sar/cy_sar.h **** 
  15:Generated_Source\PSoC6\pdl\drivers/peripheral/sar/cy_sar.h **** /**
  16:Generated_Source\PSoC6\pdl\drivers/peripheral/sar/cy_sar.h **** * \addtogroup group_sar
  17:Generated_Source\PSoC6\pdl\drivers/peripheral/sar/cy_sar.h **** * \{
  18:Generated_Source\PSoC6\pdl\drivers/peripheral/sar/cy_sar.h **** * This driver configures and controls the SAR ADC subsystem block.
  19:Generated_Source\PSoC6\pdl\drivers/peripheral/sar/cy_sar.h **** *
  20:Generated_Source\PSoC6\pdl\drivers/peripheral/sar/cy_sar.h **** * The functions and other declarations used in this driver are in cy_sar.h. 
  21:Generated_Source\PSoC6\pdl\drivers/peripheral/sar/cy_sar.h **** * You can include cy_pdl.h (ModusToolbox only) to get access to all functions 
  22:Generated_Source\PSoC6\pdl\drivers/peripheral/sar/cy_sar.h **** * and declarations in the PDL. 
  23:Generated_Source\PSoC6\pdl\drivers/peripheral/sar/cy_sar.h **** *
  24:Generated_Source\PSoC6\pdl\drivers/peripheral/sar/cy_sar.h **** * This SAR ADC subsystem is comprised of:
  25:Generated_Source\PSoC6\pdl\drivers/peripheral/sar/cy_sar.h **** *   - a 12-bit SAR converter (SARADC)
  26:Generated_Source\PSoC6\pdl\drivers/peripheral/sar/cy_sar.h **** *   - an embedded reference block (SARREF)
  27:Generated_Source\PSoC6\pdl\drivers/peripheral/sar/cy_sar.h **** *   - a mux (\ref group_sar_sarmux "SARMUX") at the inputs of the converter
  28:Generated_Source\PSoC6\pdl\drivers/peripheral/sar/cy_sar.h **** *   - a sequence controller (\ref group_sar_sarmux "SARSEQ") that enables multi-channel acquisition
  29:Generated_Source\PSoC6\pdl\drivers/peripheral/sar/cy_sar.h **** *       in a round robin fashion, without CPU intervention, to maximize scan rates.
  30:Generated_Source\PSoC6\pdl\drivers/peripheral/sar/cy_sar.h **** *
  31:Generated_Source\PSoC6\pdl\drivers/peripheral/sar/cy_sar.h **** * \image html sar_block_diagram.png
  32:Generated_Source\PSoC6\pdl\drivers/peripheral/sar/cy_sar.h **** *
  33:Generated_Source\PSoC6\pdl\drivers/peripheral/sar/cy_sar.h **** * The high level features of the subsystem are:
  34:Generated_Source\PSoC6\pdl\drivers/peripheral/sar/cy_sar.h **** *   - maximum sample rate of 1 Msps
  35:Generated_Source\PSoC6\pdl\drivers/peripheral/sar/cy_sar.h **** *   - Sixteen individually configurable channels (depends on device routing capabilities)
  36:Generated_Source\PSoC6\pdl\drivers/peripheral/sar/cy_sar.h **** *   - per channel selectable
  37:Generated_Source\PSoC6\pdl\drivers/peripheral/sar/cy_sar.h **** *       - single-ended or differential input mode
  38:Generated_Source\PSoC6\pdl\drivers/peripheral/sar/cy_sar.h **** *       - input from external pin (8 channels in single-ended mode or 4 channels in differential mo
  39:Generated_Source\PSoC6\pdl\drivers/peripheral/sar/cy_sar.h **** *         or from internal signals (AMUXBUS, CTB, Die Temperature Sensor)
  40:Generated_Source\PSoC6\pdl\drivers/peripheral/sar/cy_sar.h **** *       - choose one of four programmable acquisition times
  41:Generated_Source\PSoC6\pdl\drivers/peripheral/sar/cy_sar.h **** *       - averaging and accumulation
  42:Generated_Source\PSoC6\pdl\drivers/peripheral/sar/cy_sar.h **** *   - scan can be triggered by firmware or hardware in single shot or continuous mode
  43:Generated_Source\PSoC6\pdl\drivers/peripheral/sar/cy_sar.h **** *   - hardware averaging from 2 to 256 samples
  44:Generated_Source\PSoC6\pdl\drivers/peripheral/sar/cy_sar.h **** *   - selectable voltage references
  45:Generated_Source\PSoC6\pdl\drivers/peripheral/sar/cy_sar.h **** *       - internal VDDA and VDDA/2 references
  46:Generated_Source\PSoC6\pdl\drivers/peripheral/sar/cy_sar.h **** *       - buffered 1.2 V bandgap reference from \ref group_sysanalog "AREF"
  47:Generated_Source\PSoC6\pdl\drivers/peripheral/sar/cy_sar.h **** *       - external reference from dedicated pin
  48:Generated_Source\PSoC6\pdl\drivers/peripheral/sar/cy_sar.h **** *   - Interrupt generation
  49:Generated_Source\PSoC6\pdl\drivers/peripheral/sar/cy_sar.h **** *
ARM GAS  C:\Users\cring\AppData\Local\Temp\ccGHmfvv.s 			page 26


  50:Generated_Source\PSoC6\pdl\drivers/peripheral/sar/cy_sar.h **** * \section group_sar_usage Usage
  51:Generated_Source\PSoC6\pdl\drivers/peripheral/sar/cy_sar.h **** *
  52:Generated_Source\PSoC6\pdl\drivers/peripheral/sar/cy_sar.h **** * The high level steps to use this driver are:
  53:Generated_Source\PSoC6\pdl\drivers/peripheral/sar/cy_sar.h **** *
  54:Generated_Source\PSoC6\pdl\drivers/peripheral/sar/cy_sar.h **** *   -# \ref group_sar_initialization
  55:Generated_Source\PSoC6\pdl\drivers/peripheral/sar/cy_sar.h **** *   -# \ref group_sar_trigger_conversions
  56:Generated_Source\PSoC6\pdl\drivers/peripheral/sar/cy_sar.h **** *   -# \ref group_sar_handle_interrupts
  57:Generated_Source\PSoC6\pdl\drivers/peripheral/sar/cy_sar.h **** *   -# \ref group_sar_retrieve_result
  58:Generated_Source\PSoC6\pdl\drivers/peripheral/sar/cy_sar.h **** *
  59:Generated_Source\PSoC6\pdl\drivers/peripheral/sar/cy_sar.h **** * \section group_sar_initialization Initialization and Enable
  60:Generated_Source\PSoC6\pdl\drivers/peripheral/sar/cy_sar.h **** *
  61:Generated_Source\PSoC6\pdl\drivers/peripheral/sar/cy_sar.h **** * To configure the SAR subsystem, call \ref Cy_SAR_Init. Pass in a pointer to the \ref SAR_Type
  62:Generated_Source\PSoC6\pdl\drivers/peripheral/sar/cy_sar.h **** * structure for the base hardware register address and pass in the configuration structure,
  63:Generated_Source\PSoC6\pdl\drivers/peripheral/sar/cy_sar.h **** * \ref cy_stc_sar_config_t.
  64:Generated_Source\PSoC6\pdl\drivers/peripheral/sar/cy_sar.h **** *
  65:Generated_Source\PSoC6\pdl\drivers/peripheral/sar/cy_sar.h **** * After initialization, call \ref Cy_SAR_Enable to enable the hardware.
  66:Generated_Source\PSoC6\pdl\drivers/peripheral/sar/cy_sar.h **** *
  67:Generated_Source\PSoC6\pdl\drivers/peripheral/sar/cy_sar.h **** * Here is guidance on how to set the data fields of the configuration structure:
  68:Generated_Source\PSoC6\pdl\drivers/peripheral/sar/cy_sar.h **** *
  69:Generated_Source\PSoC6\pdl\drivers/peripheral/sar/cy_sar.h **** * \subsection group_sar_init_struct_ctrl uint32_t ctrl
  70:Generated_Source\PSoC6\pdl\drivers/peripheral/sar/cy_sar.h **** *
  71:Generated_Source\PSoC6\pdl\drivers/peripheral/sar/cy_sar.h **** * This field specifies configurations that apply to all channels such as the Vref
  72:Generated_Source\PSoC6\pdl\drivers/peripheral/sar/cy_sar.h **** * source or the negative terminal selection for all single-ended channels.
  73:Generated_Source\PSoC6\pdl\drivers/peripheral/sar/cy_sar.h **** * Select a value from each of the following enums that begin with "cy_en_sar_ctrl_" and "OR" them t
  74:Generated_Source\PSoC6\pdl\drivers/peripheral/sar/cy_sar.h **** *   - \ref cy_en_sar_ctrl_pwr_ctrl_vref_t
  75:Generated_Source\PSoC6\pdl\drivers/peripheral/sar/cy_sar.h **** *   - \ref cy_en_sar_ctrl_vref_sel_t
  76:Generated_Source\PSoC6\pdl\drivers/peripheral/sar/cy_sar.h **** *   - \ref cy_en_sar_ctrl_bypass_cap_t
  77:Generated_Source\PSoC6\pdl\drivers/peripheral/sar/cy_sar.h **** *   - \ref cy_en_sar_ctrl_neg_sel_t
  78:Generated_Source\PSoC6\pdl\drivers/peripheral/sar/cy_sar.h **** *   - \ref cy_en_sar_ctrl_hw_ctrl_negvref_t
  79:Generated_Source\PSoC6\pdl\drivers/peripheral/sar/cy_sar.h **** *   - \ref cy_en_sar_ctrl_comp_delay_t
  80:Generated_Source\PSoC6\pdl\drivers/peripheral/sar/cy_sar.h **** *   - \ref cy_en_sar_ctrl_comp_pwr_t
  81:Generated_Source\PSoC6\pdl\drivers/peripheral/sar/cy_sar.h **** *   - \ref cy_en_sar_ctrl_sarmux_deep_sleep_t
  82:Generated_Source\PSoC6\pdl\drivers/peripheral/sar/cy_sar.h **** *   - \ref cy_en_sar_ctrl_sarseq_routing_switches_t
  83:Generated_Source\PSoC6\pdl\drivers/peripheral/sar/cy_sar.h **** *
  84:Generated_Source\PSoC6\pdl\drivers/peripheral/sar/cy_sar.h **** * \snippet sar_sut_01.cydsn/main_cm0p.c SNIPPET_SAR_SAR_CTRL
  85:Generated_Source\PSoC6\pdl\drivers/peripheral/sar/cy_sar.h **** *
  86:Generated_Source\PSoC6\pdl\drivers/peripheral/sar/cy_sar.h **** * \subsection group_sar_init_struct_sampleCtrl uint32_t sampleCtrl
  87:Generated_Source\PSoC6\pdl\drivers/peripheral/sar/cy_sar.h **** *
  88:Generated_Source\PSoC6\pdl\drivers/peripheral/sar/cy_sar.h **** * This field configures sampling details that apply to all channels.
  89:Generated_Source\PSoC6\pdl\drivers/peripheral/sar/cy_sar.h **** * Select a value from each of the following enums that begin with "cy_en_sar_sample_" and "OR" them
  90:Generated_Source\PSoC6\pdl\drivers/peripheral/sar/cy_sar.h **** *   - \ref cy_en_sar_sample_ctrl_result_align_t
  91:Generated_Source\PSoC6\pdl\drivers/peripheral/sar/cy_sar.h **** *   - \ref cy_en_sar_sample_ctrl_single_ended_format_t
  92:Generated_Source\PSoC6\pdl\drivers/peripheral/sar/cy_sar.h **** *   - \ref cy_en_sar_sample_ctrl_differential_format_t
  93:Generated_Source\PSoC6\pdl\drivers/peripheral/sar/cy_sar.h **** *   - \ref cy_en_sar_sample_ctrl_avg_cnt_t
  94:Generated_Source\PSoC6\pdl\drivers/peripheral/sar/cy_sar.h **** *   - \ref cy_en_sar_sample_ctrl_avg_mode_t
  95:Generated_Source\PSoC6\pdl\drivers/peripheral/sar/cy_sar.h **** *   - \ref cy_en_sar_sample_ctrl_trigger_mode_t
  96:Generated_Source\PSoC6\pdl\drivers/peripheral/sar/cy_sar.h **** *
  97:Generated_Source\PSoC6\pdl\drivers/peripheral/sar/cy_sar.h **** * \snippet sar_sut_01.cydsn/main_cm0p.c SNIPPET_SAR_SAMPLE_CTRL
  98:Generated_Source\PSoC6\pdl\drivers/peripheral/sar/cy_sar.h **** *
  99:Generated_Source\PSoC6\pdl\drivers/peripheral/sar/cy_sar.h **** * \subsection group_sar_init_struct_sampleTime01 uint32_t sampleTime01
 100:Generated_Source\PSoC6\pdl\drivers/peripheral/sar/cy_sar.h **** *
 101:Generated_Source\PSoC6\pdl\drivers/peripheral/sar/cy_sar.h **** * This field configures the value for sample times 0 and 1 in ADC clock cycles.
 102:Generated_Source\PSoC6\pdl\drivers/peripheral/sar/cy_sar.h **** *
 103:Generated_Source\PSoC6\pdl\drivers/peripheral/sar/cy_sar.h **** * The SAR has four programmable 10-bit aperture times that are configured using two data fields,
 104:Generated_Source\PSoC6\pdl\drivers/peripheral/sar/cy_sar.h **** * \ref group_sar_init_struct_sampleTime01 and
 105:Generated_Source\PSoC6\pdl\drivers/peripheral/sar/cy_sar.h **** * \ref group_sar_init_struct_sampleTime23.
 106:Generated_Source\PSoC6\pdl\drivers/peripheral/sar/cy_sar.h **** * Ten bits allow for a range of 0 to 1023 cycles, however 0 and 1 are invalid.
ARM GAS  C:\Users\cring\AppData\Local\Temp\ccGHmfvv.s 			page 27


 107:Generated_Source\PSoC6\pdl\drivers/peripheral/sar/cy_sar.h **** * The minimum aperture time is 167 ns. With an 18 MHz ADC clock, this is
 108:Generated_Source\PSoC6\pdl\drivers/peripheral/sar/cy_sar.h **** * equal to 3 cycles or a value of 4 in this field. The actual aperture time is one cycle less than
 109:Generated_Source\PSoC6\pdl\drivers/peripheral/sar/cy_sar.h **** * the value stored in this field.
 110:Generated_Source\PSoC6\pdl\drivers/peripheral/sar/cy_sar.h **** *
 111:Generated_Source\PSoC6\pdl\drivers/peripheral/sar/cy_sar.h **** * Use the shifts defined in \ref cy_en_sar_sample_time_shift_t.
 112:Generated_Source\PSoC6\pdl\drivers/peripheral/sar/cy_sar.h **** *
 113:Generated_Source\PSoC6\pdl\drivers/peripheral/sar/cy_sar.h **** * \snippet sar_sut_01.cydsn/main_cm0p.c SNIPPET_SAR_SAMPLE_TIME01
 114:Generated_Source\PSoC6\pdl\drivers/peripheral/sar/cy_sar.h **** *
 115:Generated_Source\PSoC6\pdl\drivers/peripheral/sar/cy_sar.h **** * \subsection group_sar_init_struct_sampleTime23 uint32_t sampleTime23
 116:Generated_Source\PSoC6\pdl\drivers/peripheral/sar/cy_sar.h **** *
 117:Generated_Source\PSoC6\pdl\drivers/peripheral/sar/cy_sar.h **** * This field configures the value for sample times 2 and 3 in ADC clock cycles.
 118:Generated_Source\PSoC6\pdl\drivers/peripheral/sar/cy_sar.h **** * Use the shifts defined in \ref cy_en_sar_sample_time_shift_t.
 119:Generated_Source\PSoC6\pdl\drivers/peripheral/sar/cy_sar.h **** *
 120:Generated_Source\PSoC6\pdl\drivers/peripheral/sar/cy_sar.h **** * \snippet sar_sut_01.cydsn/main_cm0p.c SNIPPET_SAR_SAMPLE_TIME23
 121:Generated_Source\PSoC6\pdl\drivers/peripheral/sar/cy_sar.h **** *
 122:Generated_Source\PSoC6\pdl\drivers/peripheral/sar/cy_sar.h **** * \subsection group_sar_init_struct_rangeThres uint32_t rangeThres
 123:Generated_Source\PSoC6\pdl\drivers/peripheral/sar/cy_sar.h **** *
 124:Generated_Source\PSoC6\pdl\drivers/peripheral/sar/cy_sar.h **** * This field configures the upper and lower thresholds for the range interrupt.
 125:Generated_Source\PSoC6\pdl\drivers/peripheral/sar/cy_sar.h **** * These thresholds apply on a global level for all channels with range detection enabled.
 126:Generated_Source\PSoC6\pdl\drivers/peripheral/sar/cy_sar.h **** *
 127:Generated_Source\PSoC6\pdl\drivers/peripheral/sar/cy_sar.h **** * The SARSEQ supports range detection to allow for automatic detection of sample values
 128:Generated_Source\PSoC6\pdl\drivers/peripheral/sar/cy_sar.h **** * compared to two programmable thresholds without CPU involvement.
 129:Generated_Source\PSoC6\pdl\drivers/peripheral/sar/cy_sar.h **** * Range detection is done after averaging, alignment, and sign extension (if applicable). In other 
 130:Generated_Source\PSoC6\pdl\drivers/peripheral/sar/cy_sar.h **** * threshold values need to have the same data format as the result data.
 131:Generated_Source\PSoC6\pdl\drivers/peripheral/sar/cy_sar.h **** * The values are interpreted as signed or unsigned according to each channel's configuration.
 132:Generated_Source\PSoC6\pdl\drivers/peripheral/sar/cy_sar.h **** *
 133:Generated_Source\PSoC6\pdl\drivers/peripheral/sar/cy_sar.h **** * Use the shifts defined in \ref cy_en_sar_range_thres_shift_t.
 134:Generated_Source\PSoC6\pdl\drivers/peripheral/sar/cy_sar.h **** *
 135:Generated_Source\PSoC6\pdl\drivers/peripheral/sar/cy_sar.h **** * The \ref Cy_SAR_SetLowLimit and \ref Cy_SAR_SetHighLimit provide run-time configurability of thes
 136:Generated_Source\PSoC6\pdl\drivers/peripheral/sar/cy_sar.h **** *
 137:Generated_Source\PSoC6\pdl\drivers/peripheral/sar/cy_sar.h **** * \snippet sar_sut_01.cydsn/main_cm0p.c SNIPPET_SAR_RANGE_THRES
 138:Generated_Source\PSoC6\pdl\drivers/peripheral/sar/cy_sar.h **** *
 139:Generated_Source\PSoC6\pdl\drivers/peripheral/sar/cy_sar.h **** * \subsection group_sar_init_struct_rangeCond cy_en_sar_range_detect_condition_t rangeCond
 140:Generated_Source\PSoC6\pdl\drivers/peripheral/sar/cy_sar.h **** *
 141:Generated_Source\PSoC6\pdl\drivers/peripheral/sar/cy_sar.h **** * This field configures the condition (below, inside, outside, or above) that will trigger
 142:Generated_Source\PSoC6\pdl\drivers/peripheral/sar/cy_sar.h **** * the range interrupt. Select a value from the \ref cy_en_sar_range_detect_condition_t enum.
 143:Generated_Source\PSoC6\pdl\drivers/peripheral/sar/cy_sar.h **** *
 144:Generated_Source\PSoC6\pdl\drivers/peripheral/sar/cy_sar.h **** * \subsection group_sar_init_struct_chanEn uint32_t chanEn
 145:Generated_Source\PSoC6\pdl\drivers/peripheral/sar/cy_sar.h **** *
 146:Generated_Source\PSoC6\pdl\drivers/peripheral/sar/cy_sar.h **** * This field configures which channels will be scanned.
 147:Generated_Source\PSoC6\pdl\drivers/peripheral/sar/cy_sar.h **** * Each bit corresponds to a channel. Bit 0 enables channel 0, bit 1 enables channel 1,
 148:Generated_Source\PSoC6\pdl\drivers/peripheral/sar/cy_sar.h **** * bit 2 enables channel 2, and so on.
 149:Generated_Source\PSoC6\pdl\drivers/peripheral/sar/cy_sar.h **** *
 150:Generated_Source\PSoC6\pdl\drivers/peripheral/sar/cy_sar.h **** * \subsection group_sar_init_struct_chanConfig uint32_t chanConfig[16]
 151:Generated_Source\PSoC6\pdl\drivers/peripheral/sar/cy_sar.h **** *
 152:Generated_Source\PSoC6\pdl\drivers/peripheral/sar/cy_sar.h **** * Each channel has its own channel configuration register.
 153:Generated_Source\PSoC6\pdl\drivers/peripheral/sar/cy_sar.h **** * The channel configuration specifies which pin/signal is connected to that channel
 154:Generated_Source\PSoC6\pdl\drivers/peripheral/sar/cy_sar.h **** * and how the channel is sampled.
 155:Generated_Source\PSoC6\pdl\drivers/peripheral/sar/cy_sar.h **** *
 156:Generated_Source\PSoC6\pdl\drivers/peripheral/sar/cy_sar.h **** * Select a value from each of the following enums that begin with "cy_en_sar_chan_config_" and "OR"
 157:Generated_Source\PSoC6\pdl\drivers/peripheral/sar/cy_sar.h **** *
 158:Generated_Source\PSoC6\pdl\drivers/peripheral/sar/cy_sar.h **** *   - \ref cy_en_sar_chan_config_input_mode_t
 159:Generated_Source\PSoC6\pdl\drivers/peripheral/sar/cy_sar.h **** *   - \ref cy_en_sar_chan_config_pos_pin_addr_t
 160:Generated_Source\PSoC6\pdl\drivers/peripheral/sar/cy_sar.h **** *   - \ref cy_en_sar_chan_config_pos_port_addr_t
 161:Generated_Source\PSoC6\pdl\drivers/peripheral/sar/cy_sar.h **** *   - \ref cy_en_sar_chan_config_avg_en_t
 162:Generated_Source\PSoC6\pdl\drivers/peripheral/sar/cy_sar.h **** *   - \ref cy_en_sar_chan_config_sample_time_t
 163:Generated_Source\PSoC6\pdl\drivers/peripheral/sar/cy_sar.h **** *   - \ref cy_en_sar_chan_config_neg_pin_addr_t
ARM GAS  C:\Users\cring\AppData\Local\Temp\ccGHmfvv.s 			page 28


 164:Generated_Source\PSoC6\pdl\drivers/peripheral/sar/cy_sar.h **** *   - \ref cy_en_sar_chan_config_neg_port_addr_t
 165:Generated_Source\PSoC6\pdl\drivers/peripheral/sar/cy_sar.h **** *
 166:Generated_Source\PSoC6\pdl\drivers/peripheral/sar/cy_sar.h **** * Some important considerations are:
 167:Generated_Source\PSoC6\pdl\drivers/peripheral/sar/cy_sar.h **** *   - The POS_PORT_ADDR and POS_PIN_ADDR bit fields are used by the SARSEQ to select
 168:Generated_Source\PSoC6\pdl\drivers/peripheral/sar/cy_sar.h **** *   the connection to the positive terminal (Vplus) of the ADC for each channel.
 169:Generated_Source\PSoC6\pdl\drivers/peripheral/sar/cy_sar.h **** *   - When the channel is an unpaired differential input (\ref CY_SAR_CHAN_DIFFERENTIAL_UNPAIRED), 
 170:Generated_Source\PSoC6\pdl\drivers/peripheral/sar/cy_sar.h **** *   NEG_PORT_ADDR and NEG_PIN_ADDR are used by the SARSEQ to select the connection
 171:Generated_Source\PSoC6\pdl\drivers/peripheral/sar/cy_sar.h **** *   to the negative terminal (Vminus) of the ADC.
 172:Generated_Source\PSoC6\pdl\drivers/peripheral/sar/cy_sar.h **** *   - When the channel is a differential input pair (\ref CY_SAR_CHAN_DIFFERENTIAL_PAIRED), the NEG
 173:Generated_Source\PSoC6\pdl\drivers/peripheral/sar/cy_sar.h **** *   For differential input pairs, only the pin for the positive terminal needs to be
 174:Generated_Source\PSoC6\pdl\drivers/peripheral/sar/cy_sar.h **** *   specified and this pin must be even. For example, Pin 0 (positive terminal) and Pin 1 (negative
 175:Generated_Source\PSoC6\pdl\drivers/peripheral/sar/cy_sar.h **** *   are a pair. Pin 2 (positive terminal) and Pin 3 (negative terminal) are a pair.
 176:Generated_Source\PSoC6\pdl\drivers/peripheral/sar/cy_sar.h **** *
 177:Generated_Source\PSoC6\pdl\drivers/peripheral/sar/cy_sar.h **** * If the SARSEQ is disabled (\ref cy_en_sar_ctrl_sarseq_routing_switches_t) or
 178:Generated_Source\PSoC6\pdl\drivers/peripheral/sar/cy_sar.h **** * it is not controlling any switches (\ref group_sar_init_struct_muxSwitchSqCtrl = 0), the port and
 179:Generated_Source\PSoC6\pdl\drivers/peripheral/sar/cy_sar.h **** * are ignored. This is possible when there is only one channel to scan.
 180:Generated_Source\PSoC6\pdl\drivers/peripheral/sar/cy_sar.h **** *
 181:Generated_Source\PSoC6\pdl\drivers/peripheral/sar/cy_sar.h **** * \snippet sar_sut_01.cydsn/main_cm0p.c SNIPPET_SAR_CHAN_CONFIG
 182:Generated_Source\PSoC6\pdl\drivers/peripheral/sar/cy_sar.h **** *
 183:Generated_Source\PSoC6\pdl\drivers/peripheral/sar/cy_sar.h **** * \subsection group_sar_init_struct_intrMask uint32_t intrMask
 184:Generated_Source\PSoC6\pdl\drivers/peripheral/sar/cy_sar.h **** *
 185:Generated_Source\PSoC6\pdl\drivers/peripheral/sar/cy_sar.h **** * This field configures which interrupt events (end of scan, overflow, or firmware collision) will 
 186:Generated_Source\PSoC6\pdl\drivers/peripheral/sar/cy_sar.h **** *
 187:Generated_Source\PSoC6\pdl\drivers/peripheral/sar/cy_sar.h **** * Select one or more values from the \ref cy_en_sar_intr_mask_t enum and "OR" them
 188:Generated_Source\PSoC6\pdl\drivers/peripheral/sar/cy_sar.h **** * together.
 189:Generated_Source\PSoC6\pdl\drivers/peripheral/sar/cy_sar.h **** *
 190:Generated_Source\PSoC6\pdl\drivers/peripheral/sar/cy_sar.h **** * \snippet sar_sut_01.cydsn/main_cm0p.c SNIPPET_SAR_INTR_MASK
 191:Generated_Source\PSoC6\pdl\drivers/peripheral/sar/cy_sar.h **** *
 192:Generated_Source\PSoC6\pdl\drivers/peripheral/sar/cy_sar.h **** * \subsection group_sar_init_struct_satIntrMask uint32_t satIntrMask
 193:Generated_Source\PSoC6\pdl\drivers/peripheral/sar/cy_sar.h **** *
 194:Generated_Source\PSoC6\pdl\drivers/peripheral/sar/cy_sar.h **** * This field configures which channels will cause a saturation interrupt.
 195:Generated_Source\PSoC6\pdl\drivers/peripheral/sar/cy_sar.h **** *
 196:Generated_Source\PSoC6\pdl\drivers/peripheral/sar/cy_sar.h **** * The SARSEQ has a saturation detect that is always applied to every conversion.
 197:Generated_Source\PSoC6\pdl\drivers/peripheral/sar/cy_sar.h **** * This feature detects whether a channel's sample value is equal to the minimum or maximum values.
 198:Generated_Source\PSoC6\pdl\drivers/peripheral/sar/cy_sar.h **** * This allows the firmware to take action, for example, discard the result, when the SARADC saturat
 199:Generated_Source\PSoC6\pdl\drivers/peripheral/sar/cy_sar.h **** * The sample value is tested right after conversion, that is, before averaging. This means that it
 200:Generated_Source\PSoC6\pdl\drivers/peripheral/sar/cy_sar.h **** * can happen that the interrupt is set while the averaged result in the data register is not
 201:Generated_Source\PSoC6\pdl\drivers/peripheral/sar/cy_sar.h **** * equal to the minimum or maximum.
 202:Generated_Source\PSoC6\pdl\drivers/peripheral/sar/cy_sar.h **** *
 203:Generated_Source\PSoC6\pdl\drivers/peripheral/sar/cy_sar.h **** * Each bit corresponds to a channel. A value of 0 disables saturation detection for all channels.
 204:Generated_Source\PSoC6\pdl\drivers/peripheral/sar/cy_sar.h **** *
 205:Generated_Source\PSoC6\pdl\drivers/peripheral/sar/cy_sar.h **** * \subsection group_sar_init_struct_rangeIntrMask uint32_t rangeIntrMask
 206:Generated_Source\PSoC6\pdl\drivers/peripheral/sar/cy_sar.h **** *
 207:Generated_Source\PSoC6\pdl\drivers/peripheral/sar/cy_sar.h **** * This field configures which channels will cause a range detection interrupt.
 208:Generated_Source\PSoC6\pdl\drivers/peripheral/sar/cy_sar.h **** * Each bit corresponds to a channel. A value of 0 disables range detection for all channels.
 209:Generated_Source\PSoC6\pdl\drivers/peripheral/sar/cy_sar.h **** *
 210:Generated_Source\PSoC6\pdl\drivers/peripheral/sar/cy_sar.h **** * \subsection group_sar_init_struct_muxSwitch uint32_t muxSwitch
 211:Generated_Source\PSoC6\pdl\drivers/peripheral/sar/cy_sar.h **** *
 212:Generated_Source\PSoC6\pdl\drivers/peripheral/sar/cy_sar.h **** * This field is the firmware control of the SARMUX switches.
 213:Generated_Source\PSoC6\pdl\drivers/peripheral/sar/cy_sar.h **** *
 214:Generated_Source\PSoC6\pdl\drivers/peripheral/sar/cy_sar.h **** * Use one or more values from the \ref cy_en_sar_mux_switch_fw_ctrl_t enum and "OR" them together.
 215:Generated_Source\PSoC6\pdl\drivers/peripheral/sar/cy_sar.h **** * If the SARSEQ is enabled, the SARMUX switches that will be used must
 216:Generated_Source\PSoC6\pdl\drivers/peripheral/sar/cy_sar.h **** * also be closed using this firmware control.
 217:Generated_Source\PSoC6\pdl\drivers/peripheral/sar/cy_sar.h **** *
 218:Generated_Source\PSoC6\pdl\drivers/peripheral/sar/cy_sar.h **** * \snippet sar_sut_01.cydsn/main_cm0p.c SNIPPET_SAR_MUX_SWITCH
 219:Generated_Source\PSoC6\pdl\drivers/peripheral/sar/cy_sar.h **** *
 220:Generated_Source\PSoC6\pdl\drivers/peripheral/sar/cy_sar.h **** * Firmware control can be changed at run-time by calling \ref Cy_SAR_SetAnalogSwitch with \ref CY_S
ARM GAS  C:\Users\cring\AppData\Local\Temp\ccGHmfvv.s 			page 29


 221:Generated_Source\PSoC6\pdl\drivers/peripheral/sar/cy_sar.h **** * and the desired switch states.
 222:Generated_Source\PSoC6\pdl\drivers/peripheral/sar/cy_sar.h **** *
 223:Generated_Source\PSoC6\pdl\drivers/peripheral/sar/cy_sar.h **** * \subsection group_sar_init_struct_muxSwitchSqCtrl uint32_t muxSwitchSqCtrl
 224:Generated_Source\PSoC6\pdl\drivers/peripheral/sar/cy_sar.h **** *
 225:Generated_Source\PSoC6\pdl\drivers/peripheral/sar/cy_sar.h **** * This field enables or disables SARSEQ control of the SARMUX switches.
 226:Generated_Source\PSoC6\pdl\drivers/peripheral/sar/cy_sar.h **** * To disable control of all switches, set this field to 0. To disable the SARSEQ all together,
 227:Generated_Source\PSoC6\pdl\drivers/peripheral/sar/cy_sar.h **** * use \ref CY_SAR_SARSEQ_SWITCH_DISABLE when configuring the \ref group_sar_init_struct_ctrl regist
 228:Generated_Source\PSoC6\pdl\drivers/peripheral/sar/cy_sar.h **** *
 229:Generated_Source\PSoC6\pdl\drivers/peripheral/sar/cy_sar.h **** * Use one or more values from the \ref cy_en_sar_mux_switch_sq_ctrl_t enum and "OR" them together.
 230:Generated_Source\PSoC6\pdl\drivers/peripheral/sar/cy_sar.h **** *
 231:Generated_Source\PSoC6\pdl\drivers/peripheral/sar/cy_sar.h **** * \snippet sar_sut_01.cydsn/main_cm0p.c SNIPPET_SAR_MUX_SQ_CTRL
 232:Generated_Source\PSoC6\pdl\drivers/peripheral/sar/cy_sar.h **** *
 233:Generated_Source\PSoC6\pdl\drivers/peripheral/sar/cy_sar.h **** * SARSEQ control can be changed at run-time by calling \ref Cy_SAR_SetSwitchSarSeqCtrl.
 234:Generated_Source\PSoC6\pdl\drivers/peripheral/sar/cy_sar.h **** *
 235:Generated_Source\PSoC6\pdl\drivers/peripheral/sar/cy_sar.h **** * \subsection group_sar_init_struct_configRouting bool configRouting
 236:Generated_Source\PSoC6\pdl\drivers/peripheral/sar/cy_sar.h **** *
 237:Generated_Source\PSoC6\pdl\drivers/peripheral/sar/cy_sar.h **** * If true, the \ref group_sar_init_struct_muxSwitch and \ref group_sar_init_struct_muxSwitchSqCtrl 
 238:Generated_Source\PSoC6\pdl\drivers/peripheral/sar/cy_sar.h **** * will be used. If false, the fields will be ignored.
 239:Generated_Source\PSoC6\pdl\drivers/peripheral/sar/cy_sar.h **** *
 240:Generated_Source\PSoC6\pdl\drivers/peripheral/sar/cy_sar.h **** * \subsection group_sar_init_struct_vrefMvValue uint32_t vrefMvValue
 241:Generated_Source\PSoC6\pdl\drivers/peripheral/sar/cy_sar.h **** *
 242:Generated_Source\PSoC6\pdl\drivers/peripheral/sar/cy_sar.h **** * This field sets the value of the reference voltage in millivolts used. This value
 243:Generated_Source\PSoC6\pdl\drivers/peripheral/sar/cy_sar.h **** * is used for converting counts to volts in the \ref Cy_SAR_CountsTo_Volts, \ref Cy_SAR_CountsTo_mV
 244:Generated_Source\PSoC6\pdl\drivers/peripheral/sar/cy_sar.h **** * \ref Cy_SAR_CountsTo_uVolts functions.
 245:Generated_Source\PSoC6\pdl\drivers/peripheral/sar/cy_sar.h **** *
 246:Generated_Source\PSoC6\pdl\drivers/peripheral/sar/cy_sar.h **** * \section group_sar_trigger_conversions Triggering Conversions
 247:Generated_Source\PSoC6\pdl\drivers/peripheral/sar/cy_sar.h **** *
 248:Generated_Source\PSoC6\pdl\drivers/peripheral/sar/cy_sar.h **** * The SAR subsystem has the following modes for triggering a conversion:
 249:Generated_Source\PSoC6\pdl\drivers/peripheral/sar/cy_sar.h **** * <table class="doxtable">
 250:Generated_Source\PSoC6\pdl\drivers/peripheral/sar/cy_sar.h **** *   <tr>
 251:Generated_Source\PSoC6\pdl\drivers/peripheral/sar/cy_sar.h **** *     <th>Mode</th>
 252:Generated_Source\PSoC6\pdl\drivers/peripheral/sar/cy_sar.h **** *     <th>Description</th>
 253:Generated_Source\PSoC6\pdl\drivers/peripheral/sar/cy_sar.h **** *     <th>Usage</th>
 254:Generated_Source\PSoC6\pdl\drivers/peripheral/sar/cy_sar.h **** *   </tr>
 255:Generated_Source\PSoC6\pdl\drivers/peripheral/sar/cy_sar.h **** *   <tr>
 256:Generated_Source\PSoC6\pdl\drivers/peripheral/sar/cy_sar.h **** *     <td>Continuous</td>
 257:Generated_Source\PSoC6\pdl\drivers/peripheral/sar/cy_sar.h **** *     <td>After completing a scan, the
 258:Generated_Source\PSoC6\pdl\drivers/peripheral/sar/cy_sar.h **** *     SARSEQ will immediately start the next scan. That is, the SARSEQ will always be BUSY.
 259:Generated_Source\PSoC6\pdl\drivers/peripheral/sar/cy_sar.h **** *     As a result all other triggers, firmware or hardware, are essentially ignored.
 260:Generated_Source\PSoC6\pdl\drivers/peripheral/sar/cy_sar.h **** *  </td>
 261:Generated_Source\PSoC6\pdl\drivers/peripheral/sar/cy_sar.h **** *     <td>To enter this mode, call \ref Cy_SAR_StartConvert with \ref CY_SAR_START_CONVERT_CONTINUO
 262:Generated_Source\PSoC6\pdl\drivers/peripheral/sar/cy_sar.h **** *     To stop continuous conversions, call \ref Cy_SAR_StopConvert.
 263:Generated_Source\PSoC6\pdl\drivers/peripheral/sar/cy_sar.h **** *     </td>
 264:Generated_Source\PSoC6\pdl\drivers/peripheral/sar/cy_sar.h **** *   </tr>
 265:Generated_Source\PSoC6\pdl\drivers/peripheral/sar/cy_sar.h **** *   <tr>
 266:Generated_Source\PSoC6\pdl\drivers/peripheral/sar/cy_sar.h **** *     <td>Firmware single shot</td>
 267:Generated_Source\PSoC6\pdl\drivers/peripheral/sar/cy_sar.h **** *     <td>A single conversion of all enabled channels is triggered with a function call to \ref Cy_
 268:Generated_Source\PSoC6\pdl\drivers/peripheral/sar/cy_sar.h **** *     \ref CY_SAR_START_CONVERT_SINGLE_SHOT.
 269:Generated_Source\PSoC6\pdl\drivers/peripheral/sar/cy_sar.h **** *     </td>
 270:Generated_Source\PSoC6\pdl\drivers/peripheral/sar/cy_sar.h **** *     <td>
 271:Generated_Source\PSoC6\pdl\drivers/peripheral/sar/cy_sar.h **** *     Firmware triggering is always available by calling \ref Cy_SAR_StartConvert with \ref CY_SAR_
 272:Generated_Source\PSoC6\pdl\drivers/peripheral/sar/cy_sar.h **** *     To allow only firmware triggering, or disable
 273:Generated_Source\PSoC6\pdl\drivers/peripheral/sar/cy_sar.h **** *     hardware triggering, set up the \ref cy_stc_sar_config_t config structure with \ref CY_SAR_TR
 274:Generated_Source\PSoC6\pdl\drivers/peripheral/sar/cy_sar.h **** *     </td>
 275:Generated_Source\PSoC6\pdl\drivers/peripheral/sar/cy_sar.h **** *   </tr>
 276:Generated_Source\PSoC6\pdl\drivers/peripheral/sar/cy_sar.h **** *   <tr>
 277:Generated_Source\PSoC6\pdl\drivers/peripheral/sar/cy_sar.h **** *     <td>Hardware edge sensitive</td>
ARM GAS  C:\Users\cring\AppData\Local\Temp\ccGHmfvv.s 			page 30


 278:Generated_Source\PSoC6\pdl\drivers/peripheral/sar/cy_sar.h **** *     <td>A single conversion of all enabled channels is triggered on the rising edge of the hardwa
 279:Generated_Source\PSoC6\pdl\drivers/peripheral/sar/cy_sar.h **** *     trigger signal.</td>
 280:Generated_Source\PSoC6\pdl\drivers/peripheral/sar/cy_sar.h **** *     <td>To enable this mode, set up the \ref cy_stc_sar_config_t config structure with
 281:Generated_Source\PSoC6\pdl\drivers/peripheral/sar/cy_sar.h **** *     \ref CY_SAR_TRIGGER_MODE_FW_AND_HWEDGE.</td>
 282:Generated_Source\PSoC6\pdl\drivers/peripheral/sar/cy_sar.h **** *    </tr>
 283:Generated_Source\PSoC6\pdl\drivers/peripheral/sar/cy_sar.h **** *    <tr>
 284:Generated_Source\PSoC6\pdl\drivers/peripheral/sar/cy_sar.h **** *     <td>Hardware level sensitive</td>
 285:Generated_Source\PSoC6\pdl\drivers/peripheral/sar/cy_sar.h **** *     <td>Conversions are triggered continuously when the hardware trigger signal is high.</td>
 286:Generated_Source\PSoC6\pdl\drivers/peripheral/sar/cy_sar.h **** *     <td>To enable this mode, set up the \ref cy_stc_sar_config_t config structure with
 287:Generated_Source\PSoC6\pdl\drivers/peripheral/sar/cy_sar.h **** *     \ref CY_SAR_TRIGGER_MODE_FW_AND_HWLEVEL.</td>
 288:Generated_Source\PSoC6\pdl\drivers/peripheral/sar/cy_sar.h **** *    </tr>
 289:Generated_Source\PSoC6\pdl\drivers/peripheral/sar/cy_sar.h **** * </table>
 290:Generated_Source\PSoC6\pdl\drivers/peripheral/sar/cy_sar.h **** *
 291:Generated_Source\PSoC6\pdl\drivers/peripheral/sar/cy_sar.h **** * The trigger mode can be changed during run time with \ref Cy_SAR_SetConvertMode.
 292:Generated_Source\PSoC6\pdl\drivers/peripheral/sar/cy_sar.h **** *
 293:Generated_Source\PSoC6\pdl\drivers/peripheral/sar/cy_sar.h **** * For the hardware trigger modes, use the \ref group_trigmux driver to route an internal or externa
 294:Generated_Source\PSoC6\pdl\drivers/peripheral/sar/cy_sar.h **** * signal to the SAR trigger input.
 295:Generated_Source\PSoC6\pdl\drivers/peripheral/sar/cy_sar.h **** * When making the required \ref Cy_TrigMux_Connect calls, use the pre-defined enum, TRIG6_OUT_PASS_
 296:Generated_Source\PSoC6\pdl\drivers/peripheral/sar/cy_sar.h **** * for the SAR trigger input.
 297:Generated_Source\PSoC6\pdl\drivers/peripheral/sar/cy_sar.h **** *
 298:Generated_Source\PSoC6\pdl\drivers/peripheral/sar/cy_sar.h **** * \snippet sar_sut_01.cydsn/main_cm0p.c SNIPPET_SAR_CONFIG_TRIGGER
 299:Generated_Source\PSoC6\pdl\drivers/peripheral/sar/cy_sar.h **** *
 300:Generated_Source\PSoC6\pdl\drivers/peripheral/sar/cy_sar.h **** * \section group_sar_handle_interrupts Handling Interrupts
 301:Generated_Source\PSoC6\pdl\drivers/peripheral/sar/cy_sar.h **** *
 302:Generated_Source\PSoC6\pdl\drivers/peripheral/sar/cy_sar.h **** * The SAR can generate interrupts on these events:
 303:Generated_Source\PSoC6\pdl\drivers/peripheral/sar/cy_sar.h **** *
 304:Generated_Source\PSoC6\pdl\drivers/peripheral/sar/cy_sar.h **** *   - End of scan (EOS): when scanning of all enabled channels complete.
 305:Generated_Source\PSoC6\pdl\drivers/peripheral/sar/cy_sar.h **** *   - Overflow: when the result register is updated before the previous result is read.
 306:Generated_Source\PSoC6\pdl\drivers/peripheral/sar/cy_sar.h **** *   - FW collision: when a new trigger is received while the SAR is still processing the previous t
 307:Generated_Source\PSoC6\pdl\drivers/peripheral/sar/cy_sar.h **** *   - Saturation detection: when the channel result is equal to the minimum or maximum value.
 308:Generated_Source\PSoC6\pdl\drivers/peripheral/sar/cy_sar.h **** *   - Range detection: when the channel result meets the programmed upper or lower threshold values
 309:Generated_Source\PSoC6\pdl\drivers/peripheral/sar/cy_sar.h **** *
 310:Generated_Source\PSoC6\pdl\drivers/peripheral/sar/cy_sar.h **** * The SAR interrupt to the NVIC is raised any time the intersection (logic and) of the interrupt
 311:Generated_Source\PSoC6\pdl\drivers/peripheral/sar/cy_sar.h **** * flags and the corresponding interrupt masks are non-zero.
 312:Generated_Source\PSoC6\pdl\drivers/peripheral/sar/cy_sar.h **** *
 313:Generated_Source\PSoC6\pdl\drivers/peripheral/sar/cy_sar.h **** * Implement an interrupt routine and assign it to the SAR interrupt.
 314:Generated_Source\PSoC6\pdl\drivers/peripheral/sar/cy_sar.h **** * Use the pre-defined enum, pass_interrupt_sar_IRQn, as the interrupt source for the SAR.
 315:Generated_Source\PSoC6\pdl\drivers/peripheral/sar/cy_sar.h **** *
 316:Generated_Source\PSoC6\pdl\drivers/peripheral/sar/cy_sar.h **** * The following code snippet demonstrates how to implement a routine to handle the interrupt.
 317:Generated_Source\PSoC6\pdl\drivers/peripheral/sar/cy_sar.h **** * The routine gets called when any one of the SAR interrupts are triggered.
 318:Generated_Source\PSoC6\pdl\drivers/peripheral/sar/cy_sar.h **** * When servicing an interrupt, the user must clear the interrupt so that subsequent
 319:Generated_Source\PSoC6\pdl\drivers/peripheral/sar/cy_sar.h **** * interrupts can be handled.
 320:Generated_Source\PSoC6\pdl\drivers/peripheral/sar/cy_sar.h **** *
 321:Generated_Source\PSoC6\pdl\drivers/peripheral/sar/cy_sar.h **** * \snippet sar_sut_01.cydsn/main_cm0p.c SNIPPET_SAR_ISR
 322:Generated_Source\PSoC6\pdl\drivers/peripheral/sar/cy_sar.h **** *
 323:Generated_Source\PSoC6\pdl\drivers/peripheral/sar/cy_sar.h **** * The following code snippet demonstrates how to configure and enable the interrupt.
 324:Generated_Source\PSoC6\pdl\drivers/peripheral/sar/cy_sar.h **** *
 325:Generated_Source\PSoC6\pdl\drivers/peripheral/sar/cy_sar.h **** * \snippet sar_sut_01.cydsn/main_cm0p.c SNIPPET_SAR_CONFIG_INTR
 326:Generated_Source\PSoC6\pdl\drivers/peripheral/sar/cy_sar.h **** *
 327:Generated_Source\PSoC6\pdl\drivers/peripheral/sar/cy_sar.h **** * Alternately, instead of handling the interrupts, the \ref Cy_SAR_IsEndConversion function
 328:Generated_Source\PSoC6\pdl\drivers/peripheral/sar/cy_sar.h **** * allows for firmware polling of the end of conversion status.
 329:Generated_Source\PSoC6\pdl\drivers/peripheral/sar/cy_sar.h **** *
 330:Generated_Source\PSoC6\pdl\drivers/peripheral/sar/cy_sar.h **** * \section group_sar_retrieve_result Retrieve Channel Results
 331:Generated_Source\PSoC6\pdl\drivers/peripheral/sar/cy_sar.h **** *
 332:Generated_Source\PSoC6\pdl\drivers/peripheral/sar/cy_sar.h **** * Retrieve the ADC result by calling \ref Cy_SAR_GetResult16 with the desired channel.
 333:Generated_Source\PSoC6\pdl\drivers/peripheral/sar/cy_sar.h **** * To convert the result to a voltage, pass the ADC result to \ref Cy_SAR_CountsTo_Volts, \ref Cy_SA
 334:Generated_Source\PSoC6\pdl\drivers/peripheral/sar/cy_sar.h **** * \ref Cy_SAR_CountsTo_uVolts.
ARM GAS  C:\Users\cring\AppData\Local\Temp\ccGHmfvv.s 			page 31


 335:Generated_Source\PSoC6\pdl\drivers/peripheral/sar/cy_sar.h **** *
 336:Generated_Source\PSoC6\pdl\drivers/peripheral/sar/cy_sar.h **** * \section group_sar_clock SAR Clock Configuration
 337:Generated_Source\PSoC6\pdl\drivers/peripheral/sar/cy_sar.h **** *
 338:Generated_Source\PSoC6\pdl\drivers/peripheral/sar/cy_sar.h **** * The SAR requires a clock. Assign a clock to the SAR using the
 339:Generated_Source\PSoC6\pdl\drivers/peripheral/sar/cy_sar.h **** * pre-defined enum, PCLK_PASS_CLOCK_SAR, to identify the SAR subsystem.
 340:Generated_Source\PSoC6\pdl\drivers/peripheral/sar/cy_sar.h **** * Set the clock divider value to achieve the desired clock rate. The SAR can support
 341:Generated_Source\PSoC6\pdl\drivers/peripheral/sar/cy_sar.h **** * a maximum frequency of 18 MHz.
 342:Generated_Source\PSoC6\pdl\drivers/peripheral/sar/cy_sar.h **** *
 343:Generated_Source\PSoC6\pdl\drivers/peripheral/sar/cy_sar.h **** * \snippet sar_sut_01.cydsn/main_cm4.c SAR_SNIPPET_CONFIGURE_CLOCK
 344:Generated_Source\PSoC6\pdl\drivers/peripheral/sar/cy_sar.h **** *
 345:Generated_Source\PSoC6\pdl\drivers/peripheral/sar/cy_sar.h **** * \section group_sar_scan_time Scan Rate
 346:Generated_Source\PSoC6\pdl\drivers/peripheral/sar/cy_sar.h **** *
 347:Generated_Source\PSoC6\pdl\drivers/peripheral/sar/cy_sar.h **** * The scan rate is dependent on the following:
 348:Generated_Source\PSoC6\pdl\drivers/peripheral/sar/cy_sar.h **** *
 349:Generated_Source\PSoC6\pdl\drivers/peripheral/sar/cy_sar.h **** *   - ADC clock rate
 350:Generated_Source\PSoC6\pdl\drivers/peripheral/sar/cy_sar.h **** *   - Number of channels
 351:Generated_Source\PSoC6\pdl\drivers/peripheral/sar/cy_sar.h **** *   - Averaging
 352:Generated_Source\PSoC6\pdl\drivers/peripheral/sar/cy_sar.h **** *   - Resolution
 353:Generated_Source\PSoC6\pdl\drivers/peripheral/sar/cy_sar.h **** *   - Acquisition times
 354:Generated_Source\PSoC6\pdl\drivers/peripheral/sar/cy_sar.h **** *
 355:Generated_Source\PSoC6\pdl\drivers/peripheral/sar/cy_sar.h **** * \subsection group_sar_acquisition_time Acquisition Time
 356:Generated_Source\PSoC6\pdl\drivers/peripheral/sar/cy_sar.h **** *
 357:Generated_Source\PSoC6\pdl\drivers/peripheral/sar/cy_sar.h **** * The acquisition time of a channel is based on which of the four global aperture times are selecte
 358:Generated_Source\PSoC6\pdl\drivers/peripheral/sar/cy_sar.h **** * channel. The selection is done during initialization per channel with \ref group_sar_init_struct_
 359:Generated_Source\PSoC6\pdl\drivers/peripheral/sar/cy_sar.h **** * The four global aperture times are also set during initialization with \ref group_sar_init_struct
 360:Generated_Source\PSoC6\pdl\drivers/peripheral/sar/cy_sar.h **** * \ref group_sar_init_struct_sampleTime23. Note that these global aperture times are in SAR clock c
 361:Generated_Source\PSoC6\pdl\drivers/peripheral/sar/cy_sar.h **** * acquisition time is 1 less than that value in the register.
 362:Generated_Source\PSoC6\pdl\drivers/peripheral/sar/cy_sar.h **** *
 363:Generated_Source\PSoC6\pdl\drivers/peripheral/sar/cy_sar.h **** * \image html sar_acquisition_time_eqn.png
 364:Generated_Source\PSoC6\pdl\drivers/peripheral/sar/cy_sar.h **** *
 365:Generated_Source\PSoC6\pdl\drivers/peripheral/sar/cy_sar.h **** * \subsection group_sar_channel_sample_time Channel Sample Time
 366:Generated_Source\PSoC6\pdl\drivers/peripheral/sar/cy_sar.h **** *
 367:Generated_Source\PSoC6\pdl\drivers/peripheral/sar/cy_sar.h **** * The sample time for a channel is the time required to acquire the analog signal
 368:Generated_Source\PSoC6\pdl\drivers/peripheral/sar/cy_sar.h **** * and convert it to a digital code.
 369:Generated_Source\PSoC6\pdl\drivers/peripheral/sar/cy_sar.h **** *
 370:Generated_Source\PSoC6\pdl\drivers/peripheral/sar/cy_sar.h **** * \image html sar_channel_sample_time_eqn.png
 371:Generated_Source\PSoC6\pdl\drivers/peripheral/sar/cy_sar.h **** *
 372:Generated_Source\PSoC6\pdl\drivers/peripheral/sar/cy_sar.h **** * The SAR ADC is a 12-bit converter so Resolution = 12.
 373:Generated_Source\PSoC6\pdl\drivers/peripheral/sar/cy_sar.h **** *
 374:Generated_Source\PSoC6\pdl\drivers/peripheral/sar/cy_sar.h **** * \subsection group_sar_total_scan_time Total Scan Time
 375:Generated_Source\PSoC6\pdl\drivers/peripheral/sar/cy_sar.h **** *
 376:Generated_Source\PSoC6\pdl\drivers/peripheral/sar/cy_sar.h **** * Channels using one of the sequential averaging modes (\ref CY_SAR_AVG_MODE_SEQUENTIAL_ACCUM or \r
 377:Generated_Source\PSoC6\pdl\drivers/peripheral/sar/cy_sar.h **** * are sampled multiple times per scan. The number of samples averaged are set during initialization
 378:Generated_Source\PSoC6\pdl\drivers/peripheral/sar/cy_sar.h **** * with \ref group_sar_init_struct_sampleCtrl using one of the values from \ref cy_en_sar_sample_ctr
 379:Generated_Source\PSoC6\pdl\drivers/peripheral/sar/cy_sar.h **** * Channels that are not averaged or use the \ref CY_SAR_AVG_MODE_INTERLEAVED mode are only sampled 
 380:Generated_Source\PSoC6\pdl\drivers/peripheral/sar/cy_sar.h **** *
 381:Generated_Source\PSoC6\pdl\drivers/peripheral/sar/cy_sar.h **** * The total scan time is the sum of each channel's sample time multiplied by the samples per scan.
 382:Generated_Source\PSoC6\pdl\drivers/peripheral/sar/cy_sar.h **** *
 383:Generated_Source\PSoC6\pdl\drivers/peripheral/sar/cy_sar.h **** * \image html sar_scan_rate_eqn.png
 384:Generated_Source\PSoC6\pdl\drivers/peripheral/sar/cy_sar.h **** *
 385:Generated_Source\PSoC6\pdl\drivers/peripheral/sar/cy_sar.h **** * where N is the total number of channels in the scan.
 386:Generated_Source\PSoC6\pdl\drivers/peripheral/sar/cy_sar.h **** *
 387:Generated_Source\PSoC6\pdl\drivers/peripheral/sar/cy_sar.h **** * \section group_sar_sarmux SARMUX and SARSEQ
 388:Generated_Source\PSoC6\pdl\drivers/peripheral/sar/cy_sar.h **** *
 389:Generated_Source\PSoC6\pdl\drivers/peripheral/sar/cy_sar.h **** * The SARMUX is an analog programmable multiplexer. Its switches can be controlled by the SARSEQ or
 390:Generated_Source\PSoC6\pdl\drivers/peripheral/sar/cy_sar.h **** * and the inputs can come from:
 391:Generated_Source\PSoC6\pdl\drivers/peripheral/sar/cy_sar.h **** *   - a dedicated port (can support 8 single-ended channels or 4 differential channels)
ARM GAS  C:\Users\cring\AppData\Local\Temp\ccGHmfvv.s 			page 32


 392:Generated_Source\PSoC6\pdl\drivers/peripheral/sar/cy_sar.h **** *   - an internal die temperature (DieTemp) sensor
 393:Generated_Source\PSoC6\pdl\drivers/peripheral/sar/cy_sar.h **** *   - CTB output via SARBUS0/1 (if CTBs are available on the device)
 394:Generated_Source\PSoC6\pdl\drivers/peripheral/sar/cy_sar.h **** *   - AMUXBUSA/B
 395:Generated_Source\PSoC6\pdl\drivers/peripheral/sar/cy_sar.h **** *
 396:Generated_Source\PSoC6\pdl\drivers/peripheral/sar/cy_sar.h **** * The following figure shows the SARMUX switches. See the device datasheet for the exact location o
 397:Generated_Source\PSoC6\pdl\drivers/peripheral/sar/cy_sar.h **** *
 398:Generated_Source\PSoC6\pdl\drivers/peripheral/sar/cy_sar.h **** * \image html sar_sarmux_switches.png
 399:Generated_Source\PSoC6\pdl\drivers/peripheral/sar/cy_sar.h **** *
 400:Generated_Source\PSoC6\pdl\drivers/peripheral/sar/cy_sar.h **** * When using the SARSEQ, the following configurations must be performed:
 401:Generated_Source\PSoC6\pdl\drivers/peripheral/sar/cy_sar.h **** *   - enable SARSEQ control of required switches (see \ref group_sar_init_struct_muxSwitchSqCtrl)
 402:Generated_Source\PSoC6\pdl\drivers/peripheral/sar/cy_sar.h **** *   - close the required switches with firmware (see \ref group_sar_init_struct_muxSwitch)
 403:Generated_Source\PSoC6\pdl\drivers/peripheral/sar/cy_sar.h **** *   - configure the POS_PORT_ADDR and POS_PIN_ADDR, and if used, the NEG_PORT_ADDR and NEG_PIN_ADDR
 404:Generated_Source\PSoC6\pdl\drivers/peripheral/sar/cy_sar.h **** *
 405:Generated_Source\PSoC6\pdl\drivers/peripheral/sar/cy_sar.h **** * While firmware can control every switch in the SARMUX, not every switch can be controlled by the 
 406:Generated_Source\PSoC6\pdl\drivers/peripheral/sar/cy_sar.h **** * Additionally, switches outside of the SARMUX such as the AMUXBUSA/B switches or
 407:Generated_Source\PSoC6\pdl\drivers/peripheral/sar/cy_sar.h **** * CTB switches will require separate function calls (see \ref group_gpio "GPIO" and \ref group_ctb 
 408:Generated_Source\PSoC6\pdl\drivers/peripheral/sar/cy_sar.h **** * The SARSEQ can control three switches in the \ref group_ctb "CTB" driver (see \ref Cy_CTB_EnableS
 409:Generated_Source\PSoC6\pdl\drivers/peripheral/sar/cy_sar.h **** * These switches need to be enabled for SARSEQ control if the CTB outputs are used as the SARMUX in
 410:Generated_Source\PSoC6\pdl\drivers/peripheral/sar/cy_sar.h **** *
 411:Generated_Source\PSoC6\pdl\drivers/peripheral/sar/cy_sar.h **** * The following table shows the required POS_PORT_ADDR and POS_PIN_ADDR settings
 412:Generated_Source\PSoC6\pdl\drivers/peripheral/sar/cy_sar.h **** * for different input connections.
 413:Generated_Source\PSoC6\pdl\drivers/peripheral/sar/cy_sar.h **** *
 414:Generated_Source\PSoC6\pdl\drivers/peripheral/sar/cy_sar.h **** * <table class="doxtable">
 415:Generated_Source\PSoC6\pdl\drivers/peripheral/sar/cy_sar.h **** *   <tr>
 416:Generated_Source\PSoC6\pdl\drivers/peripheral/sar/cy_sar.h **** *     <th>Input Connection Selection</th>
 417:Generated_Source\PSoC6\pdl\drivers/peripheral/sar/cy_sar.h **** *     <th>POS_PORT_ADDR</th>
 418:Generated_Source\PSoC6\pdl\drivers/peripheral/sar/cy_sar.h **** *     <th>POS_PIN_ADDR</th>
 419:Generated_Source\PSoC6\pdl\drivers/peripheral/sar/cy_sar.h **** *   </tr>
 420:Generated_Source\PSoC6\pdl\drivers/peripheral/sar/cy_sar.h **** *   <tr>
 421:Generated_Source\PSoC6\pdl\drivers/peripheral/sar/cy_sar.h **** *     <td>SARMUX dedicated port</td>
 422:Generated_Source\PSoC6\pdl\drivers/peripheral/sar/cy_sar.h **** *     <td>\ref CY_SAR_POS_PORT_ADDR_SARMUX</td>
 423:Generated_Source\PSoC6\pdl\drivers/peripheral/sar/cy_sar.h **** *     <td>\ref CY_SAR_CHAN_POS_PIN_ADDR_0 through \ref CY_SAR_CHAN_POS_PIN_ADDR_7</td>
 424:Generated_Source\PSoC6\pdl\drivers/peripheral/sar/cy_sar.h **** *   </tr>
 425:Generated_Source\PSoC6\pdl\drivers/peripheral/sar/cy_sar.h **** *   <tr>
 426:Generated_Source\PSoC6\pdl\drivers/peripheral/sar/cy_sar.h **** *     <td>DieTemp sensor</td>
 427:Generated_Source\PSoC6\pdl\drivers/peripheral/sar/cy_sar.h **** *     <td>\ref CY_SAR_POS_PORT_ADDR_SARMUX_VIRT</td>
 428:Generated_Source\PSoC6\pdl\drivers/peripheral/sar/cy_sar.h **** *     <td>\ref CY_SAR_CHAN_POS_PIN_ADDR_0</td>
 429:Generated_Source\PSoC6\pdl\drivers/peripheral/sar/cy_sar.h **** *   </tr>
 430:Generated_Source\PSoC6\pdl\drivers/peripheral/sar/cy_sar.h **** *   <tr>
 431:Generated_Source\PSoC6\pdl\drivers/peripheral/sar/cy_sar.h **** *     <td>AMUXBUSA</td>
 432:Generated_Source\PSoC6\pdl\drivers/peripheral/sar/cy_sar.h **** *     <td>\ref CY_SAR_POS_PORT_ADDR_SARMUX_VIRT</td>
 433:Generated_Source\PSoC6\pdl\drivers/peripheral/sar/cy_sar.h **** *     <td>\ref CY_SAR_CHAN_POS_PIN_ADDR_2</td>
 434:Generated_Source\PSoC6\pdl\drivers/peripheral/sar/cy_sar.h **** *   </tr>
 435:Generated_Source\PSoC6\pdl\drivers/peripheral/sar/cy_sar.h **** *   <tr>
 436:Generated_Source\PSoC6\pdl\drivers/peripheral/sar/cy_sar.h **** *     <td>AMUXBUSB</td>
 437:Generated_Source\PSoC6\pdl\drivers/peripheral/sar/cy_sar.h **** *     <td>\ref CY_SAR_POS_PORT_ADDR_SARMUX_VIRT</td>
 438:Generated_Source\PSoC6\pdl\drivers/peripheral/sar/cy_sar.h **** *     <td>\ref CY_SAR_CHAN_POS_PIN_ADDR_3</td>
 439:Generated_Source\PSoC6\pdl\drivers/peripheral/sar/cy_sar.h **** *   </tr>
 440:Generated_Source\PSoC6\pdl\drivers/peripheral/sar/cy_sar.h **** *   <tr>
 441:Generated_Source\PSoC6\pdl\drivers/peripheral/sar/cy_sar.h **** *     <td>CTB0 Opamp0 1x output</td>
 442:Generated_Source\PSoC6\pdl\drivers/peripheral/sar/cy_sar.h **** *     <td>\ref CY_SAR_POS_PORT_ADDR_CTB0</td>
 443:Generated_Source\PSoC6\pdl\drivers/peripheral/sar/cy_sar.h **** *     <td>\ref CY_SAR_CHAN_POS_PIN_ADDR_2</td>
 444:Generated_Source\PSoC6\pdl\drivers/peripheral/sar/cy_sar.h **** *   </tr>
 445:Generated_Source\PSoC6\pdl\drivers/peripheral/sar/cy_sar.h **** *   <tr>
 446:Generated_Source\PSoC6\pdl\drivers/peripheral/sar/cy_sar.h **** *     <td>CTB0 Opamp1 1x output</td>
 447:Generated_Source\PSoC6\pdl\drivers/peripheral/sar/cy_sar.h **** *     <td>\ref CY_SAR_POS_PORT_ADDR_CTB0</td>
 448:Generated_Source\PSoC6\pdl\drivers/peripheral/sar/cy_sar.h **** *     <td>\ref CY_SAR_CHAN_POS_PIN_ADDR_3</td>
ARM GAS  C:\Users\cring\AppData\Local\Temp\ccGHmfvv.s 			page 33


 449:Generated_Source\PSoC6\pdl\drivers/peripheral/sar/cy_sar.h **** *   </tr>
 450:Generated_Source\PSoC6\pdl\drivers/peripheral/sar/cy_sar.h **** * </table>
 451:Generated_Source\PSoC6\pdl\drivers/peripheral/sar/cy_sar.h **** *
 452:Generated_Source\PSoC6\pdl\drivers/peripheral/sar/cy_sar.h **** * \subsection group_sar_sarmux_dietemp Input from DieTemp sensor
 453:Generated_Source\PSoC6\pdl\drivers/peripheral/sar/cy_sar.h **** *
 454:Generated_Source\PSoC6\pdl\drivers/peripheral/sar/cy_sar.h **** * When using the DieTemp sensor, always use single-ended mode.
 455:Generated_Source\PSoC6\pdl\drivers/peripheral/sar/cy_sar.h **** * The temperature sensor can be routed to Vplus using the \ref CY_SAR_MUX_FW_TEMP_VPLUS switch.
 456:Generated_Source\PSoC6\pdl\drivers/peripheral/sar/cy_sar.h **** * Connecting this switch will also enable the sensor. Set the \ref group_sar_acquisition_time "acqu
 457:Generated_Source\PSoC6\pdl\drivers/peripheral/sar/cy_sar.h **** * be at least 1 us to meet the settling time of the temperature sensor.
 458:Generated_Source\PSoC6\pdl\drivers/peripheral/sar/cy_sar.h **** *
 459:Generated_Source\PSoC6\pdl\drivers/peripheral/sar/cy_sar.h **** * \image html sar_sarmux_dietemp.png
 460:Generated_Source\PSoC6\pdl\drivers/peripheral/sar/cy_sar.h **** *
 461:Generated_Source\PSoC6\pdl\drivers/peripheral/sar/cy_sar.h **** * \snippet sar_sut_02.cydsn/main_cm4.c SNIPPET_SAR_SARMUX_DIETEMP
 462:Generated_Source\PSoC6\pdl\drivers/peripheral/sar/cy_sar.h **** *
 463:Generated_Source\PSoC6\pdl\drivers/peripheral/sar/cy_sar.h **** * \subsection group_sar_sarmux_se_diff Input from SARMUX port
 464:Generated_Source\PSoC6\pdl\drivers/peripheral/sar/cy_sar.h **** *
 465:Generated_Source\PSoC6\pdl\drivers/peripheral/sar/cy_sar.h **** * The following figure and code snippet show how two GPIOs on the SARMUX dedicated port
 466:Generated_Source\PSoC6\pdl\drivers/peripheral/sar/cy_sar.h **** * are connected to the SARADC as separate single-ended channels and as a differential-pair channel.
 467:Generated_Source\PSoC6\pdl\drivers/peripheral/sar/cy_sar.h **** *
 468:Generated_Source\PSoC6\pdl\drivers/peripheral/sar/cy_sar.h **** * \image html sar_sarmux_dedicated_port.png
 469:Generated_Source\PSoC6\pdl\drivers/peripheral/sar/cy_sar.h **** *
 470:Generated_Source\PSoC6\pdl\drivers/peripheral/sar/cy_sar.h **** * \snippet sar_sut_02.cydsn/main_cm4.c SNIPPET_SAR_SARMUX_SE_DIFF
 471:Generated_Source\PSoC6\pdl\drivers/peripheral/sar/cy_sar.h **** *
 472:Generated_Source\PSoC6\pdl\drivers/peripheral/sar/cy_sar.h **** * \subsection group_sar_sarmux_ctb Input from CTB output visa SARBUS0/1
 473:Generated_Source\PSoC6\pdl\drivers/peripheral/sar/cy_sar.h **** *
 474:Generated_Source\PSoC6\pdl\drivers/peripheral/sar/cy_sar.h **** * The following figure and code snippet show how the two opamp outputs from the CTB
 475:Generated_Source\PSoC6\pdl\drivers/peripheral/sar/cy_sar.h **** * are connected to the SARADC as separate single-ended channels and as a differential-pair channel.
 476:Generated_Source\PSoC6\pdl\drivers/peripheral/sar/cy_sar.h **** * Note that separate function calls are needed to configure and enable the opamps, perform required
 477:Generated_Source\PSoC6\pdl\drivers/peripheral/sar/cy_sar.h **** * and enable SARSEQ control of the switches contained in the CTB.
 478:Generated_Source\PSoC6\pdl\drivers/peripheral/sar/cy_sar.h **** *
 479:Generated_Source\PSoC6\pdl\drivers/peripheral/sar/cy_sar.h **** * \image html sar_sarmux_ctb.png
 480:Generated_Source\PSoC6\pdl\drivers/peripheral/sar/cy_sar.h **** *
 481:Generated_Source\PSoC6\pdl\drivers/peripheral/sar/cy_sar.h **** * \snippet sar_sut_02.cydsn/main_cm4.c SNIPPET_SAR_SARMUX_CTB
 482:Generated_Source\PSoC6\pdl\drivers/peripheral/sar/cy_sar.h **** *
 483:Generated_Source\PSoC6\pdl\drivers/peripheral/sar/cy_sar.h **** * \subsection group_sar_sarmux_amuxbus Input from other pins through AMUXBUSA/B
 484:Generated_Source\PSoC6\pdl\drivers/peripheral/sar/cy_sar.h **** *
 485:Generated_Source\PSoC6\pdl\drivers/peripheral/sar/cy_sar.h **** * The following figure and code snippet show how two GPIOs on any port through the AMUXBUSA and AMU
 486:Generated_Source\PSoC6\pdl\drivers/peripheral/sar/cy_sar.h **** * are connected to the SARADC as separate single-ended channels and as a differential-pair channel.
 487:Generated_Source\PSoC6\pdl\drivers/peripheral/sar/cy_sar.h **** * Note that separate function calls are needed to route the device pins to the SARMUX. The AMUXBUSe
 488:Generated_Source\PSoC6\pdl\drivers/peripheral/sar/cy_sar.h **** * are separated into multiple segments and these segments are connected/disconnected using the AMUX
 489:Generated_Source\PSoC6\pdl\drivers/peripheral/sar/cy_sar.h **** * registers in the HSIOM. In the following code snippet, to connect Port 1 to the SARMUX, the left 
 490:Generated_Source\PSoC6\pdl\drivers/peripheral/sar/cy_sar.h **** * switches of AMUX_SPLIT_CTL[1] and AMUX_SPLIT_CTL[6] need to be closed.
 491:Generated_Source\PSoC6\pdl\drivers/peripheral/sar/cy_sar.h **** *
 492:Generated_Source\PSoC6\pdl\drivers/peripheral/sar/cy_sar.h **** * \image html sar_sarmux_amuxbus.png
 493:Generated_Source\PSoC6\pdl\drivers/peripheral/sar/cy_sar.h **** *
 494:Generated_Source\PSoC6\pdl\drivers/peripheral/sar/cy_sar.h **** * \snippet sar_sut_02.cydsn/main_cm4.c SNIPPET_SAR_SARMUX_AMUXBUS
 495:Generated_Source\PSoC6\pdl\drivers/peripheral/sar/cy_sar.h **** *
 496:Generated_Source\PSoC6\pdl\drivers/peripheral/sar/cy_sar.h **** * \section group_sar_low_power Low Power Support
 497:Generated_Source\PSoC6\pdl\drivers/peripheral/sar/cy_sar.h **** * This SAR driver provides a callback function to handle power mode transitions.
 498:Generated_Source\PSoC6\pdl\drivers/peripheral/sar/cy_sar.h **** * The \ref Cy_SAR_DeepSleepCallback function ensures that SAR conversions are stopped
 499:Generated_Source\PSoC6\pdl\drivers/peripheral/sar/cy_sar.h **** * before Deep Sleep entry. Upon wakeup, the callback
 500:Generated_Source\PSoC6\pdl\drivers/peripheral/sar/cy_sar.h **** * enables the hardware and continuous conversions, if previously enabled.
 501:Generated_Source\PSoC6\pdl\drivers/peripheral/sar/cy_sar.h **** *
 502:Generated_Source\PSoC6\pdl\drivers/peripheral/sar/cy_sar.h **** * To trigger the callback execution, the callback must be registered before calling \ref Cy_SysPm_C
 503:Generated_Source\PSoC6\pdl\drivers/peripheral/sar/cy_sar.h **** * \ref group_syspm driver for more information about power mode transitions and
 504:Generated_Source\PSoC6\pdl\drivers/peripheral/sar/cy_sar.h **** * callback registration.
 505:Generated_Source\PSoC6\pdl\drivers/peripheral/sar/cy_sar.h **** *
ARM GAS  C:\Users\cring\AppData\Local\Temp\ccGHmfvv.s 			page 34


 506:Generated_Source\PSoC6\pdl\drivers/peripheral/sar/cy_sar.h **** * Recall that during configuration of the \ref group_sar_init_struct_ctrl "ctrl" field,
 507:Generated_Source\PSoC6\pdl\drivers/peripheral/sar/cy_sar.h **** * the SARMUX can be configured to remain enabled in Deep Sleep mode.
 508:Generated_Source\PSoC6\pdl\drivers/peripheral/sar/cy_sar.h **** * All other blocks (SARADC, REFBUF, and SARSEQ) do not support Deep Sleep mode operation.
 509:Generated_Source\PSoC6\pdl\drivers/peripheral/sar/cy_sar.h **** *
 510:Generated_Source\PSoC6\pdl\drivers/peripheral/sar/cy_sar.h **** * \section group_sar_more_information More Information
 511:Generated_Source\PSoC6\pdl\drivers/peripheral/sar/cy_sar.h **** * For more information on the SAR ADC subsystem, refer to the technical reference manual (TRM).
 512:Generated_Source\PSoC6\pdl\drivers/peripheral/sar/cy_sar.h **** *
 513:Generated_Source\PSoC6\pdl\drivers/peripheral/sar/cy_sar.h **** * \section group_sar_MISRA MISRA-C Compliance]
 514:Generated_Source\PSoC6\pdl\drivers/peripheral/sar/cy_sar.h **** *
 515:Generated_Source\PSoC6\pdl\drivers/peripheral/sar/cy_sar.h **** * This driver has the following specific deviations:
 516:Generated_Source\PSoC6\pdl\drivers/peripheral/sar/cy_sar.h **** *
 517:Generated_Source\PSoC6\pdl\drivers/peripheral/sar/cy_sar.h **** * <table class="doxtable">
 518:Generated_Source\PSoC6\pdl\drivers/peripheral/sar/cy_sar.h **** *   <tr>
 519:Generated_Source\PSoC6\pdl\drivers/peripheral/sar/cy_sar.h **** *     <th>MISRA Rule</th>
 520:Generated_Source\PSoC6\pdl\drivers/peripheral/sar/cy_sar.h **** *     <th>Rule Class (Required/Advisory)</th>
 521:Generated_Source\PSoC6\pdl\drivers/peripheral/sar/cy_sar.h **** *     <th>Rule Description</th>
 522:Generated_Source\PSoC6\pdl\drivers/peripheral/sar/cy_sar.h **** *     <th>Description of Deviation(s)</th>
 523:Generated_Source\PSoC6\pdl\drivers/peripheral/sar/cy_sar.h **** *   </tr>
 524:Generated_Source\PSoC6\pdl\drivers/peripheral/sar/cy_sar.h **** *   <tr>
 525:Generated_Source\PSoC6\pdl\drivers/peripheral/sar/cy_sar.h **** *     <td>11.4</td>
 526:Generated_Source\PSoC6\pdl\drivers/peripheral/sar/cy_sar.h **** *     <td>Advisory</td>
 527:Generated_Source\PSoC6\pdl\drivers/peripheral/sar/cy_sar.h **** *     <td>A cast should not be performed between a pointer to object type and a different pointer t
 528:Generated_Source\PSoC6\pdl\drivers/peripheral/sar/cy_sar.h **** *     <td>The cy_syspm driver defines the pointer to void in the \ref cy_stc_syspm_callback_params_
 529:Generated_Source\PSoC6\pdl\drivers/peripheral/sar/cy_sar.h **** *       This SAR driver implements a Deep Sleep callback conforming to the cy_syspm driver requirem
 530:Generated_Source\PSoC6\pdl\drivers/peripheral/sar/cy_sar.h **** *       When the callback is called, the base should point to the SAR_Type register address.
 531:Generated_Source\PSoC6\pdl\drivers/peripheral/sar/cy_sar.h **** *     </td>
 532:Generated_Source\PSoC6\pdl\drivers/peripheral/sar/cy_sar.h **** *   </tr>
 533:Generated_Source\PSoC6\pdl\drivers/peripheral/sar/cy_sar.h **** * </table>
 534:Generated_Source\PSoC6\pdl\drivers/peripheral/sar/cy_sar.h **** *
 535:Generated_Source\PSoC6\pdl\drivers/peripheral/sar/cy_sar.h **** * \section group_sar_changelog Changelog
 536:Generated_Source\PSoC6\pdl\drivers/peripheral/sar/cy_sar.h **** * <table class="doxtable">
 537:Generated_Source\PSoC6\pdl\drivers/peripheral/sar/cy_sar.h **** *   <tr><th>Version</th><th>Changes</th><th>Reason for Change</th></tr>
 538:Generated_Source\PSoC6\pdl\drivers/peripheral/sar/cy_sar.h **** *   <tr>
 539:Generated_Source\PSoC6\pdl\drivers/peripheral/sar/cy_sar.h **** *     <td rowspan="2">1.20</td>
 540:Generated_Source\PSoC6\pdl\drivers/peripheral/sar/cy_sar.h **** *     <td>Flattened the organization of the driver source code into the single source directory and
 541:Generated_Source\PSoC6\pdl\drivers/peripheral/sar/cy_sar.h **** *     <td>Driver library directory-structure simplification.</td>
 542:Generated_Source\PSoC6\pdl\drivers/peripheral/sar/cy_sar.h **** *   </tr>
 543:Generated_Source\PSoC6\pdl\drivers/peripheral/sar/cy_sar.h **** *   <tr>
 544:Generated_Source\PSoC6\pdl\drivers/peripheral/sar/cy_sar.h **** *     <td>Added register access layer. Use register access macros instead
 545:Generated_Source\PSoC6\pdl\drivers/peripheral/sar/cy_sar.h **** *         of direct register access using dereferenced pointers.</td>
 546:Generated_Source\PSoC6\pdl\drivers/peripheral/sar/cy_sar.h **** *     <td>Makes register access device-independent, so that the PDL does 
 547:Generated_Source\PSoC6\pdl\drivers/peripheral/sar/cy_sar.h **** *         not need to be recompiled for each supported part number.</td>
 548:Generated_Source\PSoC6\pdl\drivers/peripheral/sar/cy_sar.h **** *   </tr>
 549:Generated_Source\PSoC6\pdl\drivers/peripheral/sar/cy_sar.h **** *   <tr>
 550:Generated_Source\PSoC6\pdl\drivers/peripheral/sar/cy_sar.h **** *     <td rowspan="3">1.10</td>
 551:Generated_Source\PSoC6\pdl\drivers/peripheral/sar/cy_sar.h **** *     <td> Added workaround for parts with out of range CAP_TRIM in Init API.</td>
 552:Generated_Source\PSoC6\pdl\drivers/peripheral/sar/cy_sar.h **** *     <td> Correct CAP_TRIM is necessary achieving specified SAR ADC linearity</td>
 553:Generated_Source\PSoC6\pdl\drivers/peripheral/sar/cy_sar.h **** *   </tr>
 554:Generated_Source\PSoC6\pdl\drivers/peripheral/sar/cy_sar.h **** *   <tr>
 555:Generated_Source\PSoC6\pdl\drivers/peripheral/sar/cy_sar.h **** *     <td> Turn off the entire hardware block only if the SARMUX is not enabled 
 556:Generated_Source\PSoC6\pdl\drivers/peripheral/sar/cy_sar.h **** *          for Deep Sleep operation.                
 557:Generated_Source\PSoC6\pdl\drivers/peripheral/sar/cy_sar.h **** *     </td>
 558:Generated_Source\PSoC6\pdl\drivers/peripheral/sar/cy_sar.h **** *     <td> Improvement of the \ref Cy_SAR_DeepSleep flow</td>
 559:Generated_Source\PSoC6\pdl\drivers/peripheral/sar/cy_sar.h **** *   </tr>
 560:Generated_Source\PSoC6\pdl\drivers/peripheral/sar/cy_sar.h **** *   <tr>
 561:Generated_Source\PSoC6\pdl\drivers/peripheral/sar/cy_sar.h **** *     <td>Updated "Low Power Support" section to describe registering the Deep Sleep callback.
 562:Generated_Source\PSoC6\pdl\drivers/peripheral/sar/cy_sar.h **** *         Added parenthesis around logical AND operation in Sleep API.</td>
ARM GAS  C:\Users\cring\AppData\Local\Temp\ccGHmfvv.s 			page 35


 563:Generated_Source\PSoC6\pdl\drivers/peripheral/sar/cy_sar.h **** *     <td>Documentation update and clarification</td>
 564:Generated_Source\PSoC6\pdl\drivers/peripheral/sar/cy_sar.h **** *   </tr>
 565:Generated_Source\PSoC6\pdl\drivers/peripheral/sar/cy_sar.h **** *   <tr>
 566:Generated_Source\PSoC6\pdl\drivers/peripheral/sar/cy_sar.h **** *     <td>1.0</td>
 567:Generated_Source\PSoC6\pdl\drivers/peripheral/sar/cy_sar.h **** *     <td>Initial version</td>
 568:Generated_Source\PSoC6\pdl\drivers/peripheral/sar/cy_sar.h **** *     <td></td>
 569:Generated_Source\PSoC6\pdl\drivers/peripheral/sar/cy_sar.h **** *   </tr>
 570:Generated_Source\PSoC6\pdl\drivers/peripheral/sar/cy_sar.h **** * </table>
 571:Generated_Source\PSoC6\pdl\drivers/peripheral/sar/cy_sar.h **** *
 572:Generated_Source\PSoC6\pdl\drivers/peripheral/sar/cy_sar.h **** * \defgroup group_sar_macros Macros
 573:Generated_Source\PSoC6\pdl\drivers/peripheral/sar/cy_sar.h **** * \defgroup group_sar_functions Functions
 574:Generated_Source\PSoC6\pdl\drivers/peripheral/sar/cy_sar.h **** *   \{
 575:Generated_Source\PSoC6\pdl\drivers/peripheral/sar/cy_sar.h **** *       \defgroup group_sar_functions_basic         Initialization and Basic Functions
 576:Generated_Source\PSoC6\pdl\drivers/peripheral/sar/cy_sar.h **** *       \defgroup group_sar_functions_power         Low Power Callback
 577:Generated_Source\PSoC6\pdl\drivers/peripheral/sar/cy_sar.h **** *       \defgroup group_sar_functions_config        Run-time Configuration Functions
 578:Generated_Source\PSoC6\pdl\drivers/peripheral/sar/cy_sar.h **** *       \defgroup group_sar_functions_countsto      Counts Conversion Functions
 579:Generated_Source\PSoC6\pdl\drivers/peripheral/sar/cy_sar.h **** *       \defgroup group_sar_functions_interrupt     Interrupt Functions
 580:Generated_Source\PSoC6\pdl\drivers/peripheral/sar/cy_sar.h **** *       \defgroup group_sar_functions_switches      SARMUX Switch Control Functions
 581:Generated_Source\PSoC6\pdl\drivers/peripheral/sar/cy_sar.h **** *       \defgroup group_sar_functions_helper        Useful Configuration Query Functions
 582:Generated_Source\PSoC6\pdl\drivers/peripheral/sar/cy_sar.h **** *   \}
 583:Generated_Source\PSoC6\pdl\drivers/peripheral/sar/cy_sar.h **** * \defgroup group_sar_globals Global Variables
 584:Generated_Source\PSoC6\pdl\drivers/peripheral/sar/cy_sar.h **** * \defgroup group_sar_data_structures Data Structures
 585:Generated_Source\PSoC6\pdl\drivers/peripheral/sar/cy_sar.h **** * \defgroup group_sar_enums Enumerated Types
 586:Generated_Source\PSoC6\pdl\drivers/peripheral/sar/cy_sar.h **** *   \{
 587:Generated_Source\PSoC6\pdl\drivers/peripheral/sar/cy_sar.h **** *       \defgroup group_sar_ctrl_register_enums         Control Register Enums
 588:Generated_Source\PSoC6\pdl\drivers/peripheral/sar/cy_sar.h **** *       \defgroup group_sar_sample_ctrl_register_enums  Sample Control Register Enums
 589:Generated_Source\PSoC6\pdl\drivers/peripheral/sar/cy_sar.h **** *       \defgroup group_sar_sample_time_shift_enums     Sample Time Register Enums
 590:Generated_Source\PSoC6\pdl\drivers/peripheral/sar/cy_sar.h **** *       \defgroup group_sar_range_thres_register_enums  Range Interrupt Register Enums
 591:Generated_Source\PSoC6\pdl\drivers/peripheral/sar/cy_sar.h **** *       \defgroup group_sar_chan_config_register_enums  Channel Configuration Register Enums
 592:Generated_Source\PSoC6\pdl\drivers/peripheral/sar/cy_sar.h **** *       \defgroup group_sar_intr_mask_t_register_enums  Interrupt Mask Register Enums
 593:Generated_Source\PSoC6\pdl\drivers/peripheral/sar/cy_sar.h **** *       \defgroup group_sar_mux_switch_register_enums   SARMUX Switch Control Register Enums
 594:Generated_Source\PSoC6\pdl\drivers/peripheral/sar/cy_sar.h **** *   \}
 595:Generated_Source\PSoC6\pdl\drivers/peripheral/sar/cy_sar.h **** */
 596:Generated_Source\PSoC6\pdl\drivers/peripheral/sar/cy_sar.h **** 
 597:Generated_Source\PSoC6\pdl\drivers/peripheral/sar/cy_sar.h **** #if !defined(CY_SAR_H)
 598:Generated_Source\PSoC6\pdl\drivers/peripheral/sar/cy_sar.h **** #define CY_SAR_H
 599:Generated_Source\PSoC6\pdl\drivers/peripheral/sar/cy_sar.h **** 
 600:Generated_Source\PSoC6\pdl\drivers/peripheral/sar/cy_sar.h **** #include <stdint.h>
 601:Generated_Source\PSoC6\pdl\drivers/peripheral/sar/cy_sar.h **** #include <stdbool.h>
 602:Generated_Source\PSoC6\pdl\drivers/peripheral/sar/cy_sar.h **** #include <stddef.h>
 603:Generated_Source\PSoC6\pdl\drivers/peripheral/sar/cy_sar.h **** #include "cy_device_headers.h"
 604:Generated_Source\PSoC6\pdl\drivers/peripheral/sar/cy_sar.h **** #include "cy_syslib.h"
 605:Generated_Source\PSoC6\pdl\drivers/peripheral/sar/cy_sar.h **** #include "cy_syspm.h"
 606:Generated_Source\PSoC6\pdl\drivers/peripheral/sar/cy_sar.h **** #include "cy_device.h"
 607:Generated_Source\PSoC6\pdl\drivers/peripheral/sar/cy_sar.h **** 
 608:Generated_Source\PSoC6\pdl\drivers/peripheral/sar/cy_sar.h **** #ifdef CY_IP_MXS40PASS_SAR
 609:Generated_Source\PSoC6\pdl\drivers/peripheral/sar/cy_sar.h **** 
 610:Generated_Source\PSoC6\pdl\drivers/peripheral/sar/cy_sar.h **** #if defined(__cplusplus)
 611:Generated_Source\PSoC6\pdl\drivers/peripheral/sar/cy_sar.h **** extern "C" {
 612:Generated_Source\PSoC6\pdl\drivers/peripheral/sar/cy_sar.h **** #endif
 613:Generated_Source\PSoC6\pdl\drivers/peripheral/sar/cy_sar.h **** 
 614:Generated_Source\PSoC6\pdl\drivers/peripheral/sar/cy_sar.h **** /** \addtogroup group_sar_macros
 615:Generated_Source\PSoC6\pdl\drivers/peripheral/sar/cy_sar.h **** * \{
 616:Generated_Source\PSoC6\pdl\drivers/peripheral/sar/cy_sar.h **** */
 617:Generated_Source\PSoC6\pdl\drivers/peripheral/sar/cy_sar.h **** 
 618:Generated_Source\PSoC6\pdl\drivers/peripheral/sar/cy_sar.h **** /** Driver major version */
 619:Generated_Source\PSoC6\pdl\drivers/peripheral/sar/cy_sar.h **** #define CY_SAR_DRV_VERSION_MAJOR        1
ARM GAS  C:\Users\cring\AppData\Local\Temp\ccGHmfvv.s 			page 36


 620:Generated_Source\PSoC6\pdl\drivers/peripheral/sar/cy_sar.h **** 
 621:Generated_Source\PSoC6\pdl\drivers/peripheral/sar/cy_sar.h **** /** Driver minor version */
 622:Generated_Source\PSoC6\pdl\drivers/peripheral/sar/cy_sar.h **** #define CY_SAR_DRV_VERSION_MINOR        20
 623:Generated_Source\PSoC6\pdl\drivers/peripheral/sar/cy_sar.h **** 
 624:Generated_Source\PSoC6\pdl\drivers/peripheral/sar/cy_sar.h **** /** SAR driver identifier */
 625:Generated_Source\PSoC6\pdl\drivers/peripheral/sar/cy_sar.h **** #define CY_SAR_ID                       CY_PDL_DRV_ID(0x01u)
 626:Generated_Source\PSoC6\pdl\drivers/peripheral/sar/cy_sar.h **** 
 627:Generated_Source\PSoC6\pdl\drivers/peripheral/sar/cy_sar.h **** /** Maximum number of channels */
 628:Generated_Source\PSoC6\pdl\drivers/peripheral/sar/cy_sar.h **** #define CY_SAR_MAX_NUM_CHANNELS         (PASS_SAR_SAR_CHANNELS)
 629:Generated_Source\PSoC6\pdl\drivers/peripheral/sar/cy_sar.h **** 
 630:Generated_Source\PSoC6\pdl\drivers/peripheral/sar/cy_sar.h **** /** \cond INTERNAL */
 631:Generated_Source\PSoC6\pdl\drivers/peripheral/sar/cy_sar.h **** #define CY_SAR_DEINIT                   (0uL)             /**< De-init value for most SAR registers
 632:Generated_Source\PSoC6\pdl\drivers/peripheral/sar/cy_sar.h **** #define CY_SAR_SAMPLE_TIME_DEINIT       ((3uL << SAR_SAMPLE_TIME01_SAMPLE_TIME0_Pos) | (3uL << SAR_
 633:Generated_Source\PSoC6\pdl\drivers/peripheral/sar/cy_sar.h **** #define CY_SAR_CLEAR_ALL_SWITCHES       (0x3FFFFFFFuL)    /**< Value to clear all SARMUX switches *
 634:Generated_Source\PSoC6\pdl\drivers/peripheral/sar/cy_sar.h **** #define CY_SAR_DEINIT_SQ_CTRL           (SAR_MUX_SWITCH_SQ_CTRL_MUX_SQ_CTRL_P0_Msk \
 635:Generated_Source\PSoC6\pdl\drivers/peripheral/sar/cy_sar.h ****                                         | SAR_MUX_SWITCH_SQ_CTRL_MUX_SQ_CTRL_P1_Msk \
 636:Generated_Source\PSoC6\pdl\drivers/peripheral/sar/cy_sar.h ****                                         | SAR_MUX_SWITCH_SQ_CTRL_MUX_SQ_CTRL_P2_Msk \
 637:Generated_Source\PSoC6\pdl\drivers/peripheral/sar/cy_sar.h ****                                         | SAR_MUX_SWITCH_SQ_CTRL_MUX_SQ_CTRL_P3_Msk \
 638:Generated_Source\PSoC6\pdl\drivers/peripheral/sar/cy_sar.h ****                                         | SAR_MUX_SWITCH_SQ_CTRL_MUX_SQ_CTRL_P4_Msk \
 639:Generated_Source\PSoC6\pdl\drivers/peripheral/sar/cy_sar.h ****                                         | SAR_MUX_SWITCH_SQ_CTRL_MUX_SQ_CTRL_P5_Msk \
 640:Generated_Source\PSoC6\pdl\drivers/peripheral/sar/cy_sar.h ****                                         | SAR_MUX_SWITCH_SQ_CTRL_MUX_SQ_CTRL_P6_Msk \
 641:Generated_Source\PSoC6\pdl\drivers/peripheral/sar/cy_sar.h ****                                         | SAR_MUX_SWITCH_SQ_CTRL_MUX_SQ_CTRL_P7_Msk \
 642:Generated_Source\PSoC6\pdl\drivers/peripheral/sar/cy_sar.h ****                                         | SAR_MUX_SWITCH_SQ_CTRL_MUX_SQ_CTRL_VSSA_Msk \
 643:Generated_Source\PSoC6\pdl\drivers/peripheral/sar/cy_sar.h ****                                         | SAR_MUX_SWITCH_SQ_CTRL_MUX_SQ_CTRL_TEMP_Msk \
 644:Generated_Source\PSoC6\pdl\drivers/peripheral/sar/cy_sar.h ****                                         | SAR_MUX_SWITCH_SQ_CTRL_MUX_SQ_CTRL_AMUXBUSA_Msk \
 645:Generated_Source\PSoC6\pdl\drivers/peripheral/sar/cy_sar.h ****                                         | SAR_MUX_SWITCH_SQ_CTRL_MUX_SQ_CTRL_AMUXBUSB_Msk \
 646:Generated_Source\PSoC6\pdl\drivers/peripheral/sar/cy_sar.h ****                                         | SAR_MUX_SWITCH_SQ_CTRL_MUX_SQ_CTRL_SARBUS0_Msk \
 647:Generated_Source\PSoC6\pdl\drivers/peripheral/sar/cy_sar.h ****                                         | SAR_MUX_SWITCH_SQ_CTRL_MUX_SQ_CTRL_SARBUS1_Msk)
 648:Generated_Source\PSoC6\pdl\drivers/peripheral/sar/cy_sar.h **** #define CY_SAR_REG_CTRL_MASK            (SAR_CTRL_PWR_CTRL_VREF_Msk \
 649:Generated_Source\PSoC6\pdl\drivers/peripheral/sar/cy_sar.h ****                                         | SAR_CTRL_VREF_SEL_Msk \
 650:Generated_Source\PSoC6\pdl\drivers/peripheral/sar/cy_sar.h ****                                         | SAR_CTRL_VREF_BYP_CAP_EN_Msk \
 651:Generated_Source\PSoC6\pdl\drivers/peripheral/sar/cy_sar.h ****                                         | SAR_CTRL_NEG_SEL_Msk \
 652:Generated_Source\PSoC6\pdl\drivers/peripheral/sar/cy_sar.h ****                                         | SAR_CTRL_SAR_HW_CTRL_NEGVREF_Msk \
 653:Generated_Source\PSoC6\pdl\drivers/peripheral/sar/cy_sar.h ****                                         | SAR_CTRL_COMP_DLY_Msk \
 654:Generated_Source\PSoC6\pdl\drivers/peripheral/sar/cy_sar.h ****                                         | SAR_CTRL_REFBUF_EN_Msk \
 655:Generated_Source\PSoC6\pdl\drivers/peripheral/sar/cy_sar.h ****                                         | SAR_CTRL_COMP_PWR_Msk \
 656:Generated_Source\PSoC6\pdl\drivers/peripheral/sar/cy_sar.h ****                                         | SAR_CTRL_DEEPSLEEP_ON_Msk \
 657:Generated_Source\PSoC6\pdl\drivers/peripheral/sar/cy_sar.h ****                                         | SAR_CTRL_DSI_SYNC_CONFIG_Msk \
 658:Generated_Source\PSoC6\pdl\drivers/peripheral/sar/cy_sar.h ****                                         | SAR_CTRL_DSI_MODE_Msk \
 659:Generated_Source\PSoC6\pdl\drivers/peripheral/sar/cy_sar.h ****                                         | SAR_CTRL_SWITCH_DISABLE_Msk \
 660:Generated_Source\PSoC6\pdl\drivers/peripheral/sar/cy_sar.h ****                                         | SAR_CTRL_ENABLED_Msk)
 661:Generated_Source\PSoC6\pdl\drivers/peripheral/sar/cy_sar.h **** #define CY_SAR_REG_SAMPLE_CTRL_MASK     (SAR_SAMPLE_CTRL_LEFT_ALIGN_Msk \
 662:Generated_Source\PSoC6\pdl\drivers/peripheral/sar/cy_sar.h ****                                         | SAR_SAMPLE_CTRL_SINGLE_ENDED_SIGNED_Msk \
 663:Generated_Source\PSoC6\pdl\drivers/peripheral/sar/cy_sar.h ****                                         | SAR_SAMPLE_CTRL_DIFFERENTIAL_SIGNED_Msk \
 664:Generated_Source\PSoC6\pdl\drivers/peripheral/sar/cy_sar.h ****                                         | SAR_SAMPLE_CTRL_AVG_CNT_Msk \
 665:Generated_Source\PSoC6\pdl\drivers/peripheral/sar/cy_sar.h ****                                         | SAR_SAMPLE_CTRL_AVG_SHIFT_Msk \
 666:Generated_Source\PSoC6\pdl\drivers/peripheral/sar/cy_sar.h ****                                         | SAR_SAMPLE_CTRL_AVG_MODE_Msk \
 667:Generated_Source\PSoC6\pdl\drivers/peripheral/sar/cy_sar.h ****                                         | SAR_SAMPLE_CTRL_CONTINUOUS_Msk \
 668:Generated_Source\PSoC6\pdl\drivers/peripheral/sar/cy_sar.h ****                                         | SAR_SAMPLE_CTRL_DSI_TRIGGER_EN_Msk \
 669:Generated_Source\PSoC6\pdl\drivers/peripheral/sar/cy_sar.h ****                                         | SAR_SAMPLE_CTRL_DSI_TRIGGER_LEVEL_Msk \
 670:Generated_Source\PSoC6\pdl\drivers/peripheral/sar/cy_sar.h ****                                         | SAR_SAMPLE_CTRL_DSI_SYNC_TRIGGER_Msk \
 671:Generated_Source\PSoC6\pdl\drivers/peripheral/sar/cy_sar.h ****                                         | SAR_SAMPLE_CTRL_UAB_SCAN_MODE_Msk \
 672:Generated_Source\PSoC6\pdl\drivers/peripheral/sar/cy_sar.h ****                                         | SAR_SAMPLE_CTRL_REPEAT_INVALID_Msk \
 673:Generated_Source\PSoC6\pdl\drivers/peripheral/sar/cy_sar.h ****                                         | SAR_SAMPLE_CTRL_VALID_SEL_Msk \
 674:Generated_Source\PSoC6\pdl\drivers/peripheral/sar/cy_sar.h ****                                         | SAR_SAMPLE_CTRL_VALID_SEL_EN_Msk \
 675:Generated_Source\PSoC6\pdl\drivers/peripheral/sar/cy_sar.h ****                                         | SAR_SAMPLE_CTRL_VALID_IGNORE_Msk \
 676:Generated_Source\PSoC6\pdl\drivers/peripheral/sar/cy_sar.h ****                                         | SAR_SAMPLE_CTRL_TRIGGER_OUT_EN_Msk \
ARM GAS  C:\Users\cring\AppData\Local\Temp\ccGHmfvv.s 			page 37


 677:Generated_Source\PSoC6\pdl\drivers/peripheral/sar/cy_sar.h ****                                         | SAR_SAMPLE_CTRL_EOS_DSI_OUT_EN_Msk)
 678:Generated_Source\PSoC6\pdl\drivers/peripheral/sar/cy_sar.h **** #define CY_SAR_REG_CHAN_CONFIG_MASK     (SAR_CHAN_CONFIG_POS_PIN_ADDR_Msk \
 679:Generated_Source\PSoC6\pdl\drivers/peripheral/sar/cy_sar.h ****                                         | SAR_CHAN_CONFIG_POS_PORT_ADDR_Msk \
 680:Generated_Source\PSoC6\pdl\drivers/peripheral/sar/cy_sar.h ****                                         | SAR_CHAN_CONFIG_DIFFERENTIAL_EN_Msk \
 681:Generated_Source\PSoC6\pdl\drivers/peripheral/sar/cy_sar.h ****                                         | SAR_CHAN_CONFIG_AVG_EN_Msk \
 682:Generated_Source\PSoC6\pdl\drivers/peripheral/sar/cy_sar.h ****                                         | SAR_CHAN_CONFIG_SAMPLE_TIME_SEL_Msk \
 683:Generated_Source\PSoC6\pdl\drivers/peripheral/sar/cy_sar.h ****                                         | SAR_CHAN_CONFIG_NEG_PIN_ADDR_Msk \
 684:Generated_Source\PSoC6\pdl\drivers/peripheral/sar/cy_sar.h ****                                         | SAR_CHAN_CONFIG_NEG_PORT_ADDR_Msk \
 685:Generated_Source\PSoC6\pdl\drivers/peripheral/sar/cy_sar.h ****                                         | SAR_CHAN_CONFIG_NEG_ADDR_EN_Msk \
 686:Generated_Source\PSoC6\pdl\drivers/peripheral/sar/cy_sar.h ****                                         | SAR_CHAN_CONFIG_DSI_OUT_EN_Msk)
 687:Generated_Source\PSoC6\pdl\drivers/peripheral/sar/cy_sar.h **** #define CY_SAR_REG_SAMPLE_TIME_MASK     (SAR_SAMPLE_TIME01_SAMPLE_TIME0_Msk | SAR_SAMPLE_TIME01_SAM
 688:Generated_Source\PSoC6\pdl\drivers/peripheral/sar/cy_sar.h **** 
 689:Generated_Source\PSoC6\pdl\drivers/peripheral/sar/cy_sar.h **** #define CY_SAR_2US_DELAY                (2u)              /**< Delay used in Enable API function to
 690:Generated_Source\PSoC6\pdl\drivers/peripheral/sar/cy_sar.h **** #define CY_SAR_10V_COUNTS               (10.0F)           /**< Value of 10 in volts */
 691:Generated_Source\PSoC6\pdl\drivers/peripheral/sar/cy_sar.h **** #define CY_SAR_10MV_COUNTS              (10000)           /**< Value of 10 in millivolts */
 692:Generated_Source\PSoC6\pdl\drivers/peripheral/sar/cy_sar.h **** #define CY_SAR_10UV_COUNTS              (10000000L)       /**< Value of 10 in microvolts */
 693:Generated_Source\PSoC6\pdl\drivers/peripheral/sar/cy_sar.h **** #define CY_SAR_WRK_MAX_12BIT            (0x00001000uL)    /**< Maximum SAR work register value for 
 694:Generated_Source\PSoC6\pdl\drivers/peripheral/sar/cy_sar.h **** #define CY_SAR_RANGE_LIMIT_MAX          (0xFFFFuL)        /**< Maximum value for the low and high r
 695:Generated_Source\PSoC6\pdl\drivers/peripheral/sar/cy_sar.h **** #define CY_SAR_CAP_TRIM_MAX             (0x3FuL)          /**< Maximum value for CAP_TRIM */
 696:Generated_Source\PSoC6\pdl\drivers/peripheral/sar/cy_sar.h **** #define CY_SAR_CAP_TRIM_MIN             (0x00uL)          /**< Maximum value for CAP_TRIM */
 697:Generated_Source\PSoC6\pdl\drivers/peripheral/sar/cy_sar.h **** #define CY_SAR_CAP_TRIM                 (0x0BuL)          /**< Correct cap trim value */
 698:Generated_Source\PSoC6\pdl\drivers/peripheral/sar/cy_sar.h **** 
 699:Generated_Source\PSoC6\pdl\drivers/peripheral/sar/cy_sar.h **** /**< Macros for conditions used in CY_ASSERT calls */
 700:Generated_Source\PSoC6\pdl\drivers/peripheral/sar/cy_sar.h **** #define CY_SAR_CHANNUM(chan)            ((chan) < CY_SAR_MAX_NUM_CHANNELS)
 701:Generated_Source\PSoC6\pdl\drivers/peripheral/sar/cy_sar.h **** #define CY_SAR_CHANMASK(mask)           ((mask) < (1uL << CY_SAR_MAX_NUM_CHANNELS))
 702:Generated_Source\PSoC6\pdl\drivers/peripheral/sar/cy_sar.h **** #define CY_SAR_RANGECOND(cond)          ((cond) <= CY_SAR_RANGE_COND_OUTSIDE)
 703:Generated_Source\PSoC6\pdl\drivers/peripheral/sar/cy_sar.h **** #define CY_SAR_INTRMASK(mask)           ((mask) <= (uint32_t)(CY_SAR_INTR_EOS_MASK | CY_SAR_INTR_OV
 704:Generated_Source\PSoC6\pdl\drivers/peripheral/sar/cy_sar.h **** #define CY_SAR_TRIGGER(mode)            (((mode) == CY_SAR_TRIGGER_MODE_FW_ONLY) \
 705:Generated_Source\PSoC6\pdl\drivers/peripheral/sar/cy_sar.h ****                                         || ((mode) == CY_SAR_TRIGGER_MODE_FW_AND_HWEDGE) \
 706:Generated_Source\PSoC6\pdl\drivers/peripheral/sar/cy_sar.h ****                                         || ((mode) == CY_SAR_TRIGGER_MODE_FW_AND_HWLEVEL))
 707:Generated_Source\PSoC6\pdl\drivers/peripheral/sar/cy_sar.h **** #define CY_SAR_RETURN(mode)             (((mode) == CY_SAR_RETURN_STATUS) || ((mode) == CY_SAR_WAIT
 708:Generated_Source\PSoC6\pdl\drivers/peripheral/sar/cy_sar.h **** #define CY_SAR_STARTCONVERT(mode)       (((mode) == CY_SAR_START_CONVERT_SINGLE_SHOT) || ((mode) ==
 709:Generated_Source\PSoC6\pdl\drivers/peripheral/sar/cy_sar.h **** #define CY_SAR_RANGE_LIMIT(limit)       ((limit) <= CY_SAR_RANGE_LIMIT_MAX)
 710:Generated_Source\PSoC6\pdl\drivers/peripheral/sar/cy_sar.h **** #define CY_SAR_SWITCHSELECT(select)     ((select) == CY_SAR_MUX_SWITCH0)
 711:Generated_Source\PSoC6\pdl\drivers/peripheral/sar/cy_sar.h **** #define CY_SAR_SWITCHMASK(mask)         ((mask) <= CY_SAR_CLEAR_ALL_SWITCHES)
 712:Generated_Source\PSoC6\pdl\drivers/peripheral/sar/cy_sar.h **** #define CY_SAR_SWITCHSTATE(state)       (((state) == CY_SAR_SWITCH_OPEN) || ((state) == CY_SAR_SWIT
 713:Generated_Source\PSoC6\pdl\drivers/peripheral/sar/cy_sar.h **** #define CY_SAR_SQMASK(mask)             (((mask) & (~CY_SAR_DEINIT_SQ_CTRL)) == 0uL)
 714:Generated_Source\PSoC6\pdl\drivers/peripheral/sar/cy_sar.h **** #define CY_SAR_SQCTRL(ctrl)             (((ctrl) == CY_SAR_SWITCH_SEQ_CTRL_ENABLE) || ((ctrl) == CY
 715:Generated_Source\PSoC6\pdl\drivers/peripheral/sar/cy_sar.h **** 
 716:Generated_Source\PSoC6\pdl\drivers/peripheral/sar/cy_sar.h **** #define CY_SAR_CTRL(value)              (((value) & (~CY_SAR_REG_CTRL_MASK)) == 0uL)
 717:Generated_Source\PSoC6\pdl\drivers/peripheral/sar/cy_sar.h **** #define CY_SAR_SAMPLE_CTRL(value)       (((value) & (~CY_SAR_REG_SAMPLE_CTRL_MASK)) == 0uL)
 718:Generated_Source\PSoC6\pdl\drivers/peripheral/sar/cy_sar.h **** #define CY_SAR_SAMPLE_TIME(value)       (((value) & (~CY_SAR_REG_SAMPLE_TIME_MASK)) == 0uL)
 719:Generated_Source\PSoC6\pdl\drivers/peripheral/sar/cy_sar.h **** #define CY_SAR_CHAN_CONFIG(value)       (((value) & (~CY_SAR_REG_CHAN_CONFIG_MASK)) == 0uL)
 720:Generated_Source\PSoC6\pdl\drivers/peripheral/sar/cy_sar.h **** /** \endcond */
 721:Generated_Source\PSoC6\pdl\drivers/peripheral/sar/cy_sar.h **** 
 722:Generated_Source\PSoC6\pdl\drivers/peripheral/sar/cy_sar.h **** /** \} group_sar_macro */
 723:Generated_Source\PSoC6\pdl\drivers/peripheral/sar/cy_sar.h **** 
 724:Generated_Source\PSoC6\pdl\drivers/peripheral/sar/cy_sar.h **** /** \addtogroup group_sar_globals
 725:Generated_Source\PSoC6\pdl\drivers/peripheral/sar/cy_sar.h **** * \{
 726:Generated_Source\PSoC6\pdl\drivers/peripheral/sar/cy_sar.h **** */
 727:Generated_Source\PSoC6\pdl\drivers/peripheral/sar/cy_sar.h **** /***************************************
 728:Generated_Source\PSoC6\pdl\drivers/peripheral/sar/cy_sar.h **** *        Global Variables
 729:Generated_Source\PSoC6\pdl\drivers/peripheral/sar/cy_sar.h **** ***************************************/
 730:Generated_Source\PSoC6\pdl\drivers/peripheral/sar/cy_sar.h **** 
 731:Generated_Source\PSoC6\pdl\drivers/peripheral/sar/cy_sar.h **** /** This array is used to calibrate the offset for each channel.
 732:Generated_Source\PSoC6\pdl\drivers/peripheral/sar/cy_sar.h **** *
 733:Generated_Source\PSoC6\pdl\drivers/peripheral/sar/cy_sar.h **** * At initialization, channels that are single-ended, signed, and with Vneg = Vref
ARM GAS  C:\Users\cring\AppData\Local\Temp\ccGHmfvv.s 			page 38


 734:Generated_Source\PSoC6\pdl\drivers/peripheral/sar/cy_sar.h **** * have an offset of -(2^12)/2 = -2048. All other channels have an offset of 0.
 735:Generated_Source\PSoC6\pdl\drivers/peripheral/sar/cy_sar.h **** * The offset can be overridden using \ref Cy_SAR_SetOffset.
 736:Generated_Source\PSoC6\pdl\drivers/peripheral/sar/cy_sar.h **** *
 737:Generated_Source\PSoC6\pdl\drivers/peripheral/sar/cy_sar.h **** * The channel offsets are used by the \ref Cy_SAR_CountsTo_Volts, \ref Cy_SAR_CountsTo_mVolts, and
 738:Generated_Source\PSoC6\pdl\drivers/peripheral/sar/cy_sar.h **** * \ref Cy_SAR_CountsTo_uVolts functions to convert counts to voltage.
 739:Generated_Source\PSoC6\pdl\drivers/peripheral/sar/cy_sar.h **** *
 740:Generated_Source\PSoC6\pdl\drivers/peripheral/sar/cy_sar.h **** */
 741:Generated_Source\PSoC6\pdl\drivers/peripheral/sar/cy_sar.h **** extern volatile int16_t Cy_SAR_offset[CY_SAR_MAX_NUM_CHANNELS];
 742:Generated_Source\PSoC6\pdl\drivers/peripheral/sar/cy_sar.h **** 
 743:Generated_Source\PSoC6\pdl\drivers/peripheral/sar/cy_sar.h **** /** This array is used to calibrate the gain for each channel.
 744:Generated_Source\PSoC6\pdl\drivers/peripheral/sar/cy_sar.h **** *
 745:Generated_Source\PSoC6\pdl\drivers/peripheral/sar/cy_sar.h **** * It is set at initialization and the value depends on the SARADC resolution
 746:Generated_Source\PSoC6\pdl\drivers/peripheral/sar/cy_sar.h **** * and voltage reference, 10*(2^12)/(2*Vref).
 747:Generated_Source\PSoC6\pdl\drivers/peripheral/sar/cy_sar.h **** * The gain can be overridden using \ref Cy_SAR_SetGain.
 748:Generated_Source\PSoC6\pdl\drivers/peripheral/sar/cy_sar.h **** *
 749:Generated_Source\PSoC6\pdl\drivers/peripheral/sar/cy_sar.h **** * The channel gains are used by the \ref Cy_SAR_CountsTo_Volts, \ref Cy_SAR_CountsTo_mVolts, and
 750:Generated_Source\PSoC6\pdl\drivers/peripheral/sar/cy_sar.h **** * \ref Cy_SAR_CountsTo_uVolts functions to convert counts to voltage.
 751:Generated_Source\PSoC6\pdl\drivers/peripheral/sar/cy_sar.h **** */
 752:Generated_Source\PSoC6\pdl\drivers/peripheral/sar/cy_sar.h **** extern volatile int32_t Cy_SAR_countsPer10Volt[CY_SAR_MAX_NUM_CHANNELS];
 753:Generated_Source\PSoC6\pdl\drivers/peripheral/sar/cy_sar.h **** 
 754:Generated_Source\PSoC6\pdl\drivers/peripheral/sar/cy_sar.h **** /** \} group_sar_globals */
 755:Generated_Source\PSoC6\pdl\drivers/peripheral/sar/cy_sar.h **** 
 756:Generated_Source\PSoC6\pdl\drivers/peripheral/sar/cy_sar.h **** /** \addtogroup group_sar_enums
 757:Generated_Source\PSoC6\pdl\drivers/peripheral/sar/cy_sar.h **** * \{
 758:Generated_Source\PSoC6\pdl\drivers/peripheral/sar/cy_sar.h **** */
 759:Generated_Source\PSoC6\pdl\drivers/peripheral/sar/cy_sar.h **** 
 760:Generated_Source\PSoC6\pdl\drivers/peripheral/sar/cy_sar.h **** /******************************************************************************
 761:Generated_Source\PSoC6\pdl\drivers/peripheral/sar/cy_sar.h ****  * Enumerations
 762:Generated_Source\PSoC6\pdl\drivers/peripheral/sar/cy_sar.h ****  *****************************************************************************/
 763:Generated_Source\PSoC6\pdl\drivers/peripheral/sar/cy_sar.h **** 
 764:Generated_Source\PSoC6\pdl\drivers/peripheral/sar/cy_sar.h **** /** The SAR status/error code definitions */
 765:Generated_Source\PSoC6\pdl\drivers/peripheral/sar/cy_sar.h **** typedef enum
 766:Generated_Source\PSoC6\pdl\drivers/peripheral/sar/cy_sar.h **** {
 767:Generated_Source\PSoC6\pdl\drivers/peripheral/sar/cy_sar.h ****     CY_SAR_SUCCESS    = 0x00uL,                                      /**< Success */
 768:Generated_Source\PSoC6\pdl\drivers/peripheral/sar/cy_sar.h ****     CY_SAR_BAD_PARAM  = CY_SAR_ID | CY_PDL_STATUS_ERROR | 0x01uL,    /**< Invalid input parameters 
 769:Generated_Source\PSoC6\pdl\drivers/peripheral/sar/cy_sar.h ****     CY_SAR_TIMEOUT    = CY_SAR_ID | CY_PDL_STATUS_ERROR | 0x02uL,    /**< A timeout occurred */
 770:Generated_Source\PSoC6\pdl\drivers/peripheral/sar/cy_sar.h ****     CY_SAR_CONVERSION_NOT_COMPLETE = CY_SAR_ID | CY_PDL_STATUS_ERROR | 0x03uL,    /**< SAR conversi
 771:Generated_Source\PSoC6\pdl\drivers/peripheral/sar/cy_sar.h **** }cy_en_sar_status_t;
 772:Generated_Source\PSoC6\pdl\drivers/peripheral/sar/cy_sar.h **** 
 773:Generated_Source\PSoC6\pdl\drivers/peripheral/sar/cy_sar.h **** /** Definitions for starting a conversion used in \ref Cy_SAR_StartConvert */
 774:Generated_Source\PSoC6\pdl\drivers/peripheral/sar/cy_sar.h **** typedef enum
 775:Generated_Source\PSoC6\pdl\drivers/peripheral/sar/cy_sar.h **** {
 776:Generated_Source\PSoC6\pdl\drivers/peripheral/sar/cy_sar.h ****     CY_SAR_START_CONVERT_SINGLE_SHOT = 0uL, /**< Start a single scan (one shot) from firmware */
 777:Generated_Source\PSoC6\pdl\drivers/peripheral/sar/cy_sar.h ****     CY_SAR_START_CONVERT_CONTINUOUS  = 1uL, /**< Continuously scan enabled channels and ignores all
 778:Generated_Source\PSoC6\pdl\drivers/peripheral/sar/cy_sar.h **** }cy_en_sar_start_convert_sel_t;
 779:Generated_Source\PSoC6\pdl\drivers/peripheral/sar/cy_sar.h **** 
 780:Generated_Source\PSoC6\pdl\drivers/peripheral/sar/cy_sar.h **** /** Definitions for the return mode used in \ref Cy_SAR_IsEndConversion */
 781:Generated_Source\PSoC6\pdl\drivers/peripheral/sar/cy_sar.h **** typedef enum
 782:Generated_Source\PSoC6\pdl\drivers/peripheral/sar/cy_sar.h **** {
 783:Generated_Source\PSoC6\pdl\drivers/peripheral/sar/cy_sar.h ****     CY_SAR_RETURN_STATUS    = 0uL,      /**< Immediately returns the conversion status. */
 784:Generated_Source\PSoC6\pdl\drivers/peripheral/sar/cy_sar.h ****     CY_SAR_WAIT_FOR_RESULT  = 1uL,    /**< Does not return a result until the conversion of all seq
 785:Generated_Source\PSoC6\pdl\drivers/peripheral/sar/cy_sar.h **** }cy_en_sar_return_mode_t;
 786:Generated_Source\PSoC6\pdl\drivers/peripheral/sar/cy_sar.h **** 
 787:Generated_Source\PSoC6\pdl\drivers/peripheral/sar/cy_sar.h **** /** Switch state definitions */
 788:Generated_Source\PSoC6\pdl\drivers/peripheral/sar/cy_sar.h **** typedef enum
 789:Generated_Source\PSoC6\pdl\drivers/peripheral/sar/cy_sar.h **** {
 790:Generated_Source\PSoC6\pdl\drivers/peripheral/sar/cy_sar.h ****     CY_SAR_SWITCH_OPEN      = 0uL,    /**< Open the switch */
ARM GAS  C:\Users\cring\AppData\Local\Temp\ccGHmfvv.s 			page 39


 791:Generated_Source\PSoC6\pdl\drivers/peripheral/sar/cy_sar.h ****     CY_SAR_SWITCH_CLOSE     = 1uL     /**< Close the switch */
 792:Generated_Source\PSoC6\pdl\drivers/peripheral/sar/cy_sar.h **** }cy_en_sar_switch_state_t;
 793:Generated_Source\PSoC6\pdl\drivers/peripheral/sar/cy_sar.h **** 
 794:Generated_Source\PSoC6\pdl\drivers/peripheral/sar/cy_sar.h **** /** Definitions for sequencer control of switches */
 795:Generated_Source\PSoC6\pdl\drivers/peripheral/sar/cy_sar.h **** typedef enum
 796:Generated_Source\PSoC6\pdl\drivers/peripheral/sar/cy_sar.h **** {
 797:Generated_Source\PSoC6\pdl\drivers/peripheral/sar/cy_sar.h ****     CY_SAR_SWITCH_SEQ_CTRL_DISABLE = 0uL, /**< Disable sequencer control of switch */
 798:Generated_Source\PSoC6\pdl\drivers/peripheral/sar/cy_sar.h ****     CY_SAR_SWITCH_SEQ_CTRL_ENABLE  = 1uL  /**< Enable sequencer control of switch */
 799:Generated_Source\PSoC6\pdl\drivers/peripheral/sar/cy_sar.h **** }cy_en_sar_switch_sar_seq_ctrl_t;
 800:Generated_Source\PSoC6\pdl\drivers/peripheral/sar/cy_sar.h **** 
 801:Generated_Source\PSoC6\pdl\drivers/peripheral/sar/cy_sar.h **** /** Switch register selection for \ref Cy_SAR_SetAnalogSwitch and \ref Cy_SAR_GetAnalogSwitch */
 802:Generated_Source\PSoC6\pdl\drivers/peripheral/sar/cy_sar.h **** typedef enum
 803:Generated_Source\PSoC6\pdl\drivers/peripheral/sar/cy_sar.h **** {
 804:Generated_Source\PSoC6\pdl\drivers/peripheral/sar/cy_sar.h ****     CY_SAR_MUX_SWITCH0  = 0uL,      /**< SARMUX switch control register */
 805:Generated_Source\PSoC6\pdl\drivers/peripheral/sar/cy_sar.h **** }cy_en_sar_switch_register_sel_t;
 806:Generated_Source\PSoC6\pdl\drivers/peripheral/sar/cy_sar.h **** 
 807:Generated_Source\PSoC6\pdl\drivers/peripheral/sar/cy_sar.h **** /** \addtogroup group_sar_ctrl_register_enums
 808:Generated_Source\PSoC6\pdl\drivers/peripheral/sar/cy_sar.h **** * This set of enumerations aids in configuring the SAR CTRL register
 809:Generated_Source\PSoC6\pdl\drivers/peripheral/sar/cy_sar.h **** * \{
 810:Generated_Source\PSoC6\pdl\drivers/peripheral/sar/cy_sar.h **** */
 811:Generated_Source\PSoC6\pdl\drivers/peripheral/sar/cy_sar.h **** /** Reference voltage buffer power mode definitions */
 812:Generated_Source\PSoC6\pdl\drivers/peripheral/sar/cy_sar.h **** typedef enum
 813:Generated_Source\PSoC6\pdl\drivers/peripheral/sar/cy_sar.h **** {
 814:Generated_Source\PSoC6\pdl\drivers/peripheral/sar/cy_sar.h ****     CY_SAR_VREF_PWR_100     = 0uL << SAR_CTRL_PWR_CTRL_VREF_Pos,      /**< Full power (100%) */
 815:Generated_Source\PSoC6\pdl\drivers/peripheral/sar/cy_sar.h ****     CY_SAR_VREF_PWR_80      = 1uL << SAR_CTRL_PWR_CTRL_VREF_Pos,      /**< 80% power */
 816:Generated_Source\PSoC6\pdl\drivers/peripheral/sar/cy_sar.h ****     CY_SAR_VREF_PWR_60      = 2uL << SAR_CTRL_PWR_CTRL_VREF_Pos,      /**< 60% power */
 817:Generated_Source\PSoC6\pdl\drivers/peripheral/sar/cy_sar.h ****     CY_SAR_VREF_PWR_50      = 3uL << SAR_CTRL_PWR_CTRL_VREF_Pos,      /**< 50% power */
 818:Generated_Source\PSoC6\pdl\drivers/peripheral/sar/cy_sar.h ****     CY_SAR_VREF_PWR_40      = 4uL << SAR_CTRL_PWR_CTRL_VREF_Pos,      /**< 40% power */
 819:Generated_Source\PSoC6\pdl\drivers/peripheral/sar/cy_sar.h ****     CY_SAR_VREF_PWR_30      = 5uL << SAR_CTRL_PWR_CTRL_VREF_Pos,      /**< 30% power */
 820:Generated_Source\PSoC6\pdl\drivers/peripheral/sar/cy_sar.h ****     CY_SAR_VREF_PWR_20      = 6uL << SAR_CTRL_PWR_CTRL_VREF_Pos,      /**< 20% power */
 821:Generated_Source\PSoC6\pdl\drivers/peripheral/sar/cy_sar.h ****     CY_SAR_VREF_PWR_10      = 7uL << SAR_CTRL_PWR_CTRL_VREF_Pos,      /**< 10% power */
 822:Generated_Source\PSoC6\pdl\drivers/peripheral/sar/cy_sar.h **** }cy_en_sar_ctrl_pwr_ctrl_vref_t;
 823:Generated_Source\PSoC6\pdl\drivers/peripheral/sar/cy_sar.h **** 
 824:Generated_Source\PSoC6\pdl\drivers/peripheral/sar/cy_sar.h **** /** Reference voltage selection definitions */
 825:Generated_Source\PSoC6\pdl\drivers/peripheral/sar/cy_sar.h **** typedef enum
 826:Generated_Source\PSoC6\pdl\drivers/peripheral/sar/cy_sar.h **** {
 827:Generated_Source\PSoC6\pdl\drivers/peripheral/sar/cy_sar.h ****     CY_SAR_VREF_SEL_BGR         = 4uL << SAR_CTRL_VREF_SEL_Pos,     /**< System wide bandgap from \
 828:Generated_Source\PSoC6\pdl\drivers/peripheral/sar/cy_sar.h ****     CY_SAR_VREF_SEL_EXT         = 5uL << SAR_CTRL_VREF_SEL_Pos,     /**< External Vref direct from 
 829:Generated_Source\PSoC6\pdl\drivers/peripheral/sar/cy_sar.h ****     CY_SAR_VREF_SEL_VDDA_DIV_2  = 6uL << SAR_CTRL_VREF_SEL_Pos,     /**< Vdda/2 (Vref buffer on) */
 830:Generated_Source\PSoC6\pdl\drivers/peripheral/sar/cy_sar.h ****     CY_SAR_VREF_SEL_VDDA        = 7uL << SAR_CTRL_VREF_SEL_Pos      /**< Vdda */
 831:Generated_Source\PSoC6\pdl\drivers/peripheral/sar/cy_sar.h **** }cy_en_sar_ctrl_vref_sel_t;
 832:Generated_Source\PSoC6\pdl\drivers/peripheral/sar/cy_sar.h **** 
 833:Generated_Source\PSoC6\pdl\drivers/peripheral/sar/cy_sar.h **** /** Vref bypass cap enable.
 834:Generated_Source\PSoC6\pdl\drivers/peripheral/sar/cy_sar.h **** * When enabled, a bypass capacitor should
 835:Generated_Source\PSoC6\pdl\drivers/peripheral/sar/cy_sar.h **** * be connected to the dedicated Vref pin of the device.
 836:Generated_Source\PSoC6\pdl\drivers/peripheral/sar/cy_sar.h **** * Refer to the device datasheet for the minimum bypass capacitor value to use.
 837:Generated_Source\PSoC6\pdl\drivers/peripheral/sar/cy_sar.h **** */
 838:Generated_Source\PSoC6\pdl\drivers/peripheral/sar/cy_sar.h **** typedef enum
 839:Generated_Source\PSoC6\pdl\drivers/peripheral/sar/cy_sar.h **** {
 840:Generated_Source\PSoC6\pdl\drivers/peripheral/sar/cy_sar.h ****     CY_SAR_BYPASS_CAP_DISABLE = 0uL << SAR_CTRL_VREF_BYP_CAP_EN_Pos,    /**< Disable Vref bypass ca
 841:Generated_Source\PSoC6\pdl\drivers/peripheral/sar/cy_sar.h ****     CY_SAR_BYPASS_CAP_ENABLE  = 1uL << SAR_CTRL_VREF_BYP_CAP_EN_Pos     /**< Enable Vref bypass cap
 842:Generated_Source\PSoC6\pdl\drivers/peripheral/sar/cy_sar.h **** }cy_en_sar_ctrl_bypass_cap_t;
 843:Generated_Source\PSoC6\pdl\drivers/peripheral/sar/cy_sar.h **** 
 844:Generated_Source\PSoC6\pdl\drivers/peripheral/sar/cy_sar.h **** /** Negative terminal (Vminus) selection definitions for single-ended channels.
 845:Generated_Source\PSoC6\pdl\drivers/peripheral/sar/cy_sar.h **** *
 846:Generated_Source\PSoC6\pdl\drivers/peripheral/sar/cy_sar.h **** * The Vminus input for single ended channels can be connected to
 847:Generated_Source\PSoC6\pdl\drivers/peripheral/sar/cy_sar.h **** * Vref, VSSA, or routed out to an external pin.
ARM GAS  C:\Users\cring\AppData\Local\Temp\ccGHmfvv.s 			page 40


 848:Generated_Source\PSoC6\pdl\drivers/peripheral/sar/cy_sar.h **** * The options for routing to a pin are through Pin 1, Pin 3, Pin 5, or Pin 7
 849:Generated_Source\PSoC6\pdl\drivers/peripheral/sar/cy_sar.h **** * of the SARMUX dedicated port or an acore wire in AROUTE, if available on the device.
 850:Generated_Source\PSoC6\pdl\drivers/peripheral/sar/cy_sar.h **** *
 851:Generated_Source\PSoC6\pdl\drivers/peripheral/sar/cy_sar.h **** * \ref CY_SAR_NEG_SEL_VSSA_KELVIN comes straight from a Vssa pad without any shared branches
 852:Generated_Source\PSoC6\pdl\drivers/peripheral/sar/cy_sar.h **** * so as to keep quiet and avoid voltage drops.
 853:Generated_Source\PSoC6\pdl\drivers/peripheral/sar/cy_sar.h **** */
 854:Generated_Source\PSoC6\pdl\drivers/peripheral/sar/cy_sar.h **** typedef enum
 855:Generated_Source\PSoC6\pdl\drivers/peripheral/sar/cy_sar.h **** {
 856:Generated_Source\PSoC6\pdl\drivers/peripheral/sar/cy_sar.h ****     CY_SAR_NEG_SEL_VSSA_KELVIN  = 0uL << SAR_CTRL_NEG_SEL_Pos,  /**< Connect Vminus to VSSA_KELVIN 
 857:Generated_Source\PSoC6\pdl\drivers/peripheral/sar/cy_sar.h ****     CY_SAR_NEG_SEL_P1           = 2uL << SAR_CTRL_NEG_SEL_Pos,  /**< Connect Vminus to Pin 1 of SAR
 858:Generated_Source\PSoC6\pdl\drivers/peripheral/sar/cy_sar.h ****     CY_SAR_NEG_SEL_P3           = 3uL << SAR_CTRL_NEG_SEL_Pos,  /**< Connect Vminus to Pin 3 of SAR
 859:Generated_Source\PSoC6\pdl\drivers/peripheral/sar/cy_sar.h ****     CY_SAR_NEG_SEL_P5           = 4uL << SAR_CTRL_NEG_SEL_Pos,  /**< Connect Vminus to Pin 5 of SAR
 860:Generated_Source\PSoC6\pdl\drivers/peripheral/sar/cy_sar.h ****     CY_SAR_NEG_SEL_P7           = 5uL << SAR_CTRL_NEG_SEL_Pos,  /**< Connect Vminus to Pin 6 of SAR
 861:Generated_Source\PSoC6\pdl\drivers/peripheral/sar/cy_sar.h ****     CY_SAR_NEG_SEL_ACORE        = 6uL << SAR_CTRL_NEG_SEL_Pos,  /**< Connect Vminus to an ACORE in 
 862:Generated_Source\PSoC6\pdl\drivers/peripheral/sar/cy_sar.h ****     CY_SAR_NEG_SEL_VREF         = 7uL << SAR_CTRL_NEG_SEL_Pos,  /**< Connect Vminus to VREF input o
 863:Generated_Source\PSoC6\pdl\drivers/peripheral/sar/cy_sar.h **** }cy_en_sar_ctrl_neg_sel_t;
 864:Generated_Source\PSoC6\pdl\drivers/peripheral/sar/cy_sar.h **** 
 865:Generated_Source\PSoC6\pdl\drivers/peripheral/sar/cy_sar.h **** /** Enable hardware control of the switch between Vref and the Vminus input */
 866:Generated_Source\PSoC6\pdl\drivers/peripheral/sar/cy_sar.h **** typedef enum
 867:Generated_Source\PSoC6\pdl\drivers/peripheral/sar/cy_sar.h **** {
 868:Generated_Source\PSoC6\pdl\drivers/peripheral/sar/cy_sar.h ****     CY_SAR_CTRL_NEGVREF_FW_ONLY = 0uL << SAR_CTRL_SAR_HW_CTRL_NEGVREF_Pos,    /**< Only firmware co
 869:Generated_Source\PSoC6\pdl\drivers/peripheral/sar/cy_sar.h ****     CY_SAR_CTRL_NEGVREF_HW      = 1uL << SAR_CTRL_SAR_HW_CTRL_NEGVREF_Pos     /**< Enable hardware 
 870:Generated_Source\PSoC6\pdl\drivers/peripheral/sar/cy_sar.h **** }cy_en_sar_ctrl_hw_ctrl_negvref_t;
 871:Generated_Source\PSoC6\pdl\drivers/peripheral/sar/cy_sar.h **** 
 872:Generated_Source\PSoC6\pdl\drivers/peripheral/sar/cy_sar.h **** /** Configure the comparator latch delay */
 873:Generated_Source\PSoC6\pdl\drivers/peripheral/sar/cy_sar.h **** typedef enum
 874:Generated_Source\PSoC6\pdl\drivers/peripheral/sar/cy_sar.h **** {
 875:Generated_Source\PSoC6\pdl\drivers/peripheral/sar/cy_sar.h ****     CY_SAR_CTRL_COMP_DLY_2P5    = 0uL << SAR_CTRL_COMP_DLY_Pos,    /**< 2.5 ns delay, use for SAR c
 876:Generated_Source\PSoC6\pdl\drivers/peripheral/sar/cy_sar.h ****     CY_SAR_CTRL_COMP_DLY_4      = 1uL << SAR_CTRL_COMP_DLY_Pos,    /**< 4 ns delay, use for SAR con
 877:Generated_Source\PSoC6\pdl\drivers/peripheral/sar/cy_sar.h ****     CY_SAR_CTRL_COMP_DLY_10     = 2uL << SAR_CTRL_COMP_DLY_Pos,    /**< 10 ns delay, use for SAR co
 878:Generated_Source\PSoC6\pdl\drivers/peripheral/sar/cy_sar.h ****     CY_SAR_CTRL_COMP_DLY_12     = 3uL << SAR_CTRL_COMP_DLY_Pos     /**< 12 ns delay, use for SAR co
 879:Generated_Source\PSoC6\pdl\drivers/peripheral/sar/cy_sar.h **** }cy_en_sar_ctrl_comp_delay_t;
 880:Generated_Source\PSoC6\pdl\drivers/peripheral/sar/cy_sar.h **** 
 881:Generated_Source\PSoC6\pdl\drivers/peripheral/sar/cy_sar.h **** /** Configure the comparator power mode */
 882:Generated_Source\PSoC6\pdl\drivers/peripheral/sar/cy_sar.h **** typedef enum
 883:Generated_Source\PSoC6\pdl\drivers/peripheral/sar/cy_sar.h **** {
 884:Generated_Source\PSoC6\pdl\drivers/peripheral/sar/cy_sar.h ****     CY_SAR_COMP_PWR_100     = 0uL << SAR_CTRL_COMP_PWR_Pos,      /**< 100% power, use this for > 2 
 885:Generated_Source\PSoC6\pdl\drivers/peripheral/sar/cy_sar.h ****     CY_SAR_COMP_PWR_80      = 1uL << SAR_CTRL_COMP_PWR_Pos,      /**< 80% power, use this for 1.5 -
 886:Generated_Source\PSoC6\pdl\drivers/peripheral/sar/cy_sar.h ****     CY_SAR_COMP_PWR_60      = 2uL << SAR_CTRL_COMP_PWR_Pos,      /**< 60% power, use this for 1.0 -
 887:Generated_Source\PSoC6\pdl\drivers/peripheral/sar/cy_sar.h ****     CY_SAR_COMP_PWR_50      = 3uL << SAR_CTRL_COMP_PWR_Pos,      /**< 50% power, use this for 500 k
 888:Generated_Source\PSoC6\pdl\drivers/peripheral/sar/cy_sar.h ****     CY_SAR_COMP_PWR_40      = 4uL << SAR_CTRL_COMP_PWR_Pos,      /**< 40% power, use this for 250 -
 889:Generated_Source\PSoC6\pdl\drivers/peripheral/sar/cy_sar.h ****     CY_SAR_COMP_PWR_30      = 5uL << SAR_CTRL_COMP_PWR_Pos,      /**< 30% power, use this for 100 -
 890:Generated_Source\PSoC6\pdl\drivers/peripheral/sar/cy_sar.h ****     CY_SAR_COMP_PWR_20      = 6uL << SAR_CTRL_COMP_PWR_Pos,      /**< 20% power, use this for TDB s
 891:Generated_Source\PSoC6\pdl\drivers/peripheral/sar/cy_sar.h ****     CY_SAR_COMP_PWR_10      = 7uL << SAR_CTRL_COMP_PWR_Pos,      /**< 10% power, use this for < 100
 892:Generated_Source\PSoC6\pdl\drivers/peripheral/sar/cy_sar.h **** }cy_en_sar_ctrl_comp_pwr_t;
 893:Generated_Source\PSoC6\pdl\drivers/peripheral/sar/cy_sar.h **** 
 894:Generated_Source\PSoC6\pdl\drivers/peripheral/sar/cy_sar.h **** /** Enable or disable the SARMUX during Deep Sleep power mode. */
 895:Generated_Source\PSoC6\pdl\drivers/peripheral/sar/cy_sar.h **** typedef enum
 896:Generated_Source\PSoC6\pdl\drivers/peripheral/sar/cy_sar.h **** {
 897:Generated_Source\PSoC6\pdl\drivers/peripheral/sar/cy_sar.h ****     CY_SAR_DEEPSLEEP_SARMUX_OFF = 0uL << SAR_CTRL_DEEPSLEEP_ON_Pos,    /**< Disable SARMUX operatio
 898:Generated_Source\PSoC6\pdl\drivers/peripheral/sar/cy_sar.h ****     CY_SAR_DEEPSLEEP_SARMUX_ON  = 1uL << SAR_CTRL_DEEPSLEEP_ON_Pos     /**< Enable SARMUX operation
 899:Generated_Source\PSoC6\pdl\drivers/peripheral/sar/cy_sar.h **** }cy_en_sar_ctrl_sarmux_deep_sleep_t;
 900:Generated_Source\PSoC6\pdl\drivers/peripheral/sar/cy_sar.h **** 
 901:Generated_Source\PSoC6\pdl\drivers/peripheral/sar/cy_sar.h **** /** Enable or disable the SARSEQ control of routing switches */
 902:Generated_Source\PSoC6\pdl\drivers/peripheral/sar/cy_sar.h **** typedef enum
 903:Generated_Source\PSoC6\pdl\drivers/peripheral/sar/cy_sar.h **** {
 904:Generated_Source\PSoC6\pdl\drivers/peripheral/sar/cy_sar.h ****     CY_SAR_SARSEQ_SWITCH_ENABLE    = 0uL << SAR_CTRL_SWITCH_DISABLE_Pos,    /**< Enable the SARSEQ 
ARM GAS  C:\Users\cring\AppData\Local\Temp\ccGHmfvv.s 			page 41


 905:Generated_Source\PSoC6\pdl\drivers/peripheral/sar/cy_sar.h ****     CY_SAR_SARSEQ_SWITCH_DISABLE   = 1uL << SAR_CTRL_SWITCH_DISABLE_Pos     /**< Disable the SARSEQ
 906:Generated_Source\PSoC6\pdl\drivers/peripheral/sar/cy_sar.h **** }cy_en_sar_ctrl_sarseq_routing_switches_t;
 907:Generated_Source\PSoC6\pdl\drivers/peripheral/sar/cy_sar.h **** 
 908:Generated_Source\PSoC6\pdl\drivers/peripheral/sar/cy_sar.h **** /* \} */
 909:Generated_Source\PSoC6\pdl\drivers/peripheral/sar/cy_sar.h **** 
 910:Generated_Source\PSoC6\pdl\drivers/peripheral/sar/cy_sar.h **** /** \addtogroup group_sar_sample_ctrl_register_enums
 911:Generated_Source\PSoC6\pdl\drivers/peripheral/sar/cy_sar.h **** * This set of enumerations are used in configuring the SAR SAMPLE_CTRL register
 912:Generated_Source\PSoC6\pdl\drivers/peripheral/sar/cy_sar.h **** * \{
 913:Generated_Source\PSoC6\pdl\drivers/peripheral/sar/cy_sar.h **** */
 914:Generated_Source\PSoC6\pdl\drivers/peripheral/sar/cy_sar.h **** /** Configure result alignment, either left or right aligned.
 915:Generated_Source\PSoC6\pdl\drivers/peripheral/sar/cy_sar.h **** *
 916:Generated_Source\PSoC6\pdl\drivers/peripheral/sar/cy_sar.h **** * \note
 917:Generated_Source\PSoC6\pdl\drivers/peripheral/sar/cy_sar.h **** * Averaging always uses right alignment. If the \ref CY_SAR_LEFT_ALIGN
 918:Generated_Source\PSoC6\pdl\drivers/peripheral/sar/cy_sar.h **** * is selected with averaging enabled, it is ignored.
 919:Generated_Source\PSoC6\pdl\drivers/peripheral/sar/cy_sar.h **** *
 920:Generated_Source\PSoC6\pdl\drivers/peripheral/sar/cy_sar.h **** * \note
 921:Generated_Source\PSoC6\pdl\drivers/peripheral/sar/cy_sar.h **** * The voltage conversion functions (\ref Cy_SAR_CountsTo_Volts, \ref Cy_SAR_CountsTo_mVolts,
 922:Generated_Source\PSoC6\pdl\drivers/peripheral/sar/cy_sar.h **** * \ref Cy_SAR_CountsTo_uVolts) are only valid for right alignment.
 923:Generated_Source\PSoC6\pdl\drivers/peripheral/sar/cy_sar.h **** * */
 924:Generated_Source\PSoC6\pdl\drivers/peripheral/sar/cy_sar.h **** typedef enum
 925:Generated_Source\PSoC6\pdl\drivers/peripheral/sar/cy_sar.h **** {
 926:Generated_Source\PSoC6\pdl\drivers/peripheral/sar/cy_sar.h ****     CY_SAR_RIGHT_ALIGN  = 0uL << SAR_SAMPLE_CTRL_LEFT_ALIGN_Pos,    /**< Right align result data to
 927:Generated_Source\PSoC6\pdl\drivers/peripheral/sar/cy_sar.h ****     CY_SAR_LEFT_ALIGN   = 1uL << SAR_SAMPLE_CTRL_LEFT_ALIGN_Pos     /**< Left align result data to 
 928:Generated_Source\PSoC6\pdl\drivers/peripheral/sar/cy_sar.h **** }cy_en_sar_sample_ctrl_result_align_t;
 929:Generated_Source\PSoC6\pdl\drivers/peripheral/sar/cy_sar.h **** 
 930:Generated_Source\PSoC6\pdl\drivers/peripheral/sar/cy_sar.h **** /** Configure format, signed or unsigned, of single-ended channels */
 931:Generated_Source\PSoC6\pdl\drivers/peripheral/sar/cy_sar.h **** typedef enum
 932:Generated_Source\PSoC6\pdl\drivers/peripheral/sar/cy_sar.h **** {
 933:Generated_Source\PSoC6\pdl\drivers/peripheral/sar/cy_sar.h ****     CY_SAR_SINGLE_ENDED_UNSIGNED  = 0uL << SAR_SAMPLE_CTRL_SINGLE_ENDED_SIGNED_Pos,    /**< Result 
 934:Generated_Source\PSoC6\pdl\drivers/peripheral/sar/cy_sar.h ****     CY_SAR_SINGLE_ENDED_SIGNED    = 1uL << SAR_SAMPLE_CTRL_SINGLE_ENDED_SIGNED_Pos     /**< Result 
 935:Generated_Source\PSoC6\pdl\drivers/peripheral/sar/cy_sar.h **** }cy_en_sar_sample_ctrl_single_ended_format_t;
 936:Generated_Source\PSoC6\pdl\drivers/peripheral/sar/cy_sar.h **** 
 937:Generated_Source\PSoC6\pdl\drivers/peripheral/sar/cy_sar.h **** /** Configure format, signed or unsigned, of differential channels */
 938:Generated_Source\PSoC6\pdl\drivers/peripheral/sar/cy_sar.h **** typedef enum
 939:Generated_Source\PSoC6\pdl\drivers/peripheral/sar/cy_sar.h **** {
 940:Generated_Source\PSoC6\pdl\drivers/peripheral/sar/cy_sar.h ****     CY_SAR_DIFFERENTIAL_UNSIGNED  = 0uL << SAR_SAMPLE_CTRL_DIFFERENTIAL_SIGNED_Pos,    /**< Result 
 941:Generated_Source\PSoC6\pdl\drivers/peripheral/sar/cy_sar.h ****     CY_SAR_DIFFERENTIAL_SIGNED    = 1uL << SAR_SAMPLE_CTRL_DIFFERENTIAL_SIGNED_Pos     /**< Result 
 942:Generated_Source\PSoC6\pdl\drivers/peripheral/sar/cy_sar.h **** }cy_en_sar_sample_ctrl_differential_format_t;
 943:Generated_Source\PSoC6\pdl\drivers/peripheral/sar/cy_sar.h **** 
 944:Generated_Source\PSoC6\pdl\drivers/peripheral/sar/cy_sar.h **** /** Configure number of samples for averaging.
 945:Generated_Source\PSoC6\pdl\drivers/peripheral/sar/cy_sar.h **** * This applies only to channels with averaging enabled.
 946:Generated_Source\PSoC6\pdl\drivers/peripheral/sar/cy_sar.h **** */
 947:Generated_Source\PSoC6\pdl\drivers/peripheral/sar/cy_sar.h **** typedef enum
 948:Generated_Source\PSoC6\pdl\drivers/peripheral/sar/cy_sar.h **** {
 949:Generated_Source\PSoC6\pdl\drivers/peripheral/sar/cy_sar.h ****     CY_SAR_AVG_CNT_2          = 0uL << SAR_SAMPLE_CTRL_AVG_CNT_Pos,    /**< Set samples averaged to
 950:Generated_Source\PSoC6\pdl\drivers/peripheral/sar/cy_sar.h ****     CY_SAR_AVG_CNT_4          = 1uL << SAR_SAMPLE_CTRL_AVG_CNT_Pos,    /**< Set samples averaged to
 951:Generated_Source\PSoC6\pdl\drivers/peripheral/sar/cy_sar.h ****     CY_SAR_AVG_CNT_8          = 2uL << SAR_SAMPLE_CTRL_AVG_CNT_Pos,    /**< Set samples averaged to
 952:Generated_Source\PSoC6\pdl\drivers/peripheral/sar/cy_sar.h ****     CY_SAR_AVG_CNT_16         = 3uL << SAR_SAMPLE_CTRL_AVG_CNT_Pos,    /**< Set samples averaged to
 953:Generated_Source\PSoC6\pdl\drivers/peripheral/sar/cy_sar.h ****     CY_SAR_AVG_CNT_32         = 4uL << SAR_SAMPLE_CTRL_AVG_CNT_Pos,    /**< Set samples averaged to
 954:Generated_Source\PSoC6\pdl\drivers/peripheral/sar/cy_sar.h ****     CY_SAR_AVG_CNT_64         = 5uL << SAR_SAMPLE_CTRL_AVG_CNT_Pos,    /**< Set samples averaged to
 955:Generated_Source\PSoC6\pdl\drivers/peripheral/sar/cy_sar.h ****     CY_SAR_AVG_CNT_128        = 6uL << SAR_SAMPLE_CTRL_AVG_CNT_Pos,    /**< Set samples averaged to
 956:Generated_Source\PSoC6\pdl\drivers/peripheral/sar/cy_sar.h ****     CY_SAR_AVG_CNT_256        = 7uL << SAR_SAMPLE_CTRL_AVG_CNT_Pos     /**< Set samples averaged to
 957:Generated_Source\PSoC6\pdl\drivers/peripheral/sar/cy_sar.h **** }cy_en_sar_sample_ctrl_avg_cnt_t;
 958:Generated_Source\PSoC6\pdl\drivers/peripheral/sar/cy_sar.h **** 
 959:Generated_Source\PSoC6\pdl\drivers/peripheral/sar/cy_sar.h **** /** Configure the averaging mode.
 960:Generated_Source\PSoC6\pdl\drivers/peripheral/sar/cy_sar.h **** *
 961:Generated_Source\PSoC6\pdl\drivers/peripheral/sar/cy_sar.h **** * - Sequential accumulate and dump: a channel will be sampled back to back.
ARM GAS  C:\Users\cring\AppData\Local\Temp\ccGHmfvv.s 			page 42


 962:Generated_Source\PSoC6\pdl\drivers/peripheral/sar/cy_sar.h **** *   The result is added to a running sum in a 20-bit register. At the end
 963:Generated_Source\PSoC6\pdl\drivers/peripheral/sar/cy_sar.h **** *   of the scan, the accumulated value is shifted right to fit into 16 bits
 964:Generated_Source\PSoC6\pdl\drivers/peripheral/sar/cy_sar.h **** *   and stored into the CHAN_RESULT register.
 965:Generated_Source\PSoC6\pdl\drivers/peripheral/sar/cy_sar.h **** * - Sequential fixed:  a channel will be sampled back to back.
 966:Generated_Source\PSoC6\pdl\drivers/peripheral/sar/cy_sar.h **** *   The result is added to a running sum in a 20-bit register. At the end
 967:Generated_Source\PSoC6\pdl\drivers/peripheral/sar/cy_sar.h **** *   of the scan, the accumulated value is shifted right to fit into 12 bits
 968:Generated_Source\PSoC6\pdl\drivers/peripheral/sar/cy_sar.h **** *   and stored into the CHAN_RESULT register.
 969:Generated_Source\PSoC6\pdl\drivers/peripheral/sar/cy_sar.h **** * - Interleaved: a channel will be sampled once per scan.
 970:Generated_Source\PSoC6\pdl\drivers/peripheral/sar/cy_sar.h **** *   The result is added to a running sum in a 16-bit register.
 971:Generated_Source\PSoC6\pdl\drivers/peripheral/sar/cy_sar.h **** *   In the scan where the final averaging count is reached,
 972:Generated_Source\PSoC6\pdl\drivers/peripheral/sar/cy_sar.h **** *   the accumulated value is shifted right to fit into 12 bits
 973:Generated_Source\PSoC6\pdl\drivers/peripheral/sar/cy_sar.h **** *   and stored into the CHAN_RESULT register.
 974:Generated_Source\PSoC6\pdl\drivers/peripheral/sar/cy_sar.h **** *   In all other scans, the CHAN_RESULT will have an invalid result.
 975:Generated_Source\PSoC6\pdl\drivers/peripheral/sar/cy_sar.h **** *   In interleaved mode, make sure that the averaging
 976:Generated_Source\PSoC6\pdl\drivers/peripheral/sar/cy_sar.h **** *   count is low enough to ensure that the intermediate value does not exceed 16 bits,
 977:Generated_Source\PSoC6\pdl\drivers/peripheral/sar/cy_sar.h **** *   that is averaging count is 16 or less. Otherwise, the MSBs will be lost.
 978:Generated_Source\PSoC6\pdl\drivers/peripheral/sar/cy_sar.h **** *   In the special case that averaging is enabled for all enabled channels
 979:Generated_Source\PSoC6\pdl\drivers/peripheral/sar/cy_sar.h **** *   and interleaved mode is used, the interrupt frequency
 980:Generated_Source\PSoC6\pdl\drivers/peripheral/sar/cy_sar.h **** *   will be reduced by a factor of the number of samples averaged.
 981:Generated_Source\PSoC6\pdl\drivers/peripheral/sar/cy_sar.h **** */
 982:Generated_Source\PSoC6\pdl\drivers/peripheral/sar/cy_sar.h **** typedef enum
 983:Generated_Source\PSoC6\pdl\drivers/peripheral/sar/cy_sar.h **** {
 984:Generated_Source\PSoC6\pdl\drivers/peripheral/sar/cy_sar.h ****     CY_SAR_AVG_MODE_SEQUENTIAL_ACCUM    = 0uL,                               /**< Set mode to seque
 985:Generated_Source\PSoC6\pdl\drivers/peripheral/sar/cy_sar.h ****     CY_SAR_AVG_MODE_SEQUENTIAL_FIXED    = SAR_SAMPLE_CTRL_AVG_SHIFT_Msk,     /**< Set mode to seque
 986:Generated_Source\PSoC6\pdl\drivers/peripheral/sar/cy_sar.h ****     CY_SAR_AVG_MODE_INTERLEAVED         = SAR_SAMPLE_CTRL_AVG_MODE_Msk,      /**< Set mode to inter
 987:Generated_Source\PSoC6\pdl\drivers/peripheral/sar/cy_sar.h **** }cy_en_sar_sample_ctrl_avg_mode_t;
 988:Generated_Source\PSoC6\pdl\drivers/peripheral/sar/cy_sar.h **** 
 989:Generated_Source\PSoC6\pdl\drivers/peripheral/sar/cy_sar.h **** /** Configure the trigger mode.
 990:Generated_Source\PSoC6\pdl\drivers/peripheral/sar/cy_sar.h **** *
 991:Generated_Source\PSoC6\pdl\drivers/peripheral/sar/cy_sar.h **** * Firmware triggering is always enabled and can be single shot or continuous.
 992:Generated_Source\PSoC6\pdl\drivers/peripheral/sar/cy_sar.h **** * Additionally, hardware triggering can be enabled with the option to be
 993:Generated_Source\PSoC6\pdl\drivers/peripheral/sar/cy_sar.h **** * edge or level sensitive.
 994:Generated_Source\PSoC6\pdl\drivers/peripheral/sar/cy_sar.h **** */
 995:Generated_Source\PSoC6\pdl\drivers/peripheral/sar/cy_sar.h **** typedef enum
 996:Generated_Source\PSoC6\pdl\drivers/peripheral/sar/cy_sar.h **** {
 997:Generated_Source\PSoC6\pdl\drivers/peripheral/sar/cy_sar.h ****     CY_SAR_TRIGGER_MODE_FW_ONLY        = 0uL,                                /**< Firmware trigger 
 998:Generated_Source\PSoC6\pdl\drivers/peripheral/sar/cy_sar.h ****     CY_SAR_TRIGGER_MODE_FW_AND_HWEDGE  = SAR_SAMPLE_CTRL_DSI_TRIGGER_EN_Msk, /**< Enable edge sensi
 999:Generated_Source\PSoC6\pdl\drivers/peripheral/sar/cy_sar.h ****     CY_SAR_TRIGGER_MODE_FW_AND_HWLEVEL = SAR_SAMPLE_CTRL_DSI_TRIGGER_EN_Msk | SAR_SAMPLE_CTRL_DSI_T
1000:Generated_Source\PSoC6\pdl\drivers/peripheral/sar/cy_sar.h **** }cy_en_sar_sample_ctrl_trigger_mode_t;
1001:Generated_Source\PSoC6\pdl\drivers/peripheral/sar/cy_sar.h **** 
1002:Generated_Source\PSoC6\pdl\drivers/peripheral/sar/cy_sar.h **** /* \} */
1003:Generated_Source\PSoC6\pdl\drivers/peripheral/sar/cy_sar.h **** 
1004:Generated_Source\PSoC6\pdl\drivers/peripheral/sar/cy_sar.h **** /** \addtogroup group_sar_sample_time_shift_enums
1005:Generated_Source\PSoC6\pdl\drivers/peripheral/sar/cy_sar.h **** * This set of enumerations aids in configuring the SAR SAMPLE_TIME* registers
1006:Generated_Source\PSoC6\pdl\drivers/peripheral/sar/cy_sar.h **** * \{
1007:Generated_Source\PSoC6\pdl\drivers/peripheral/sar/cy_sar.h **** */
1008:Generated_Source\PSoC6\pdl\drivers/peripheral/sar/cy_sar.h **** /** Configure the sample time by using these shifts */
1009:Generated_Source\PSoC6\pdl\drivers/peripheral/sar/cy_sar.h **** typedef enum
1010:Generated_Source\PSoC6\pdl\drivers/peripheral/sar/cy_sar.h **** {
1011:Generated_Source\PSoC6\pdl\drivers/peripheral/sar/cy_sar.h ****     CY_SAR_SAMPLE_TIME0_SHIFT       = SAR_SAMPLE_TIME01_SAMPLE_TIME0_Pos,             /**< Shift fo
1012:Generated_Source\PSoC6\pdl\drivers/peripheral/sar/cy_sar.h ****     CY_SAR_SAMPLE_TIME1_SHIFT       = SAR_SAMPLE_TIME01_SAMPLE_TIME1_Pos,             /**< Shift fo
1013:Generated_Source\PSoC6\pdl\drivers/peripheral/sar/cy_sar.h ****     CY_SAR_SAMPLE_TIME2_SHIFT       = SAR_SAMPLE_TIME23_SAMPLE_TIME2_Pos,             /**< Shift fo
1014:Generated_Source\PSoC6\pdl\drivers/peripheral/sar/cy_sar.h ****     CY_SAR_SAMPLE_TIME3_SHIFT       = SAR_SAMPLE_TIME23_SAMPLE_TIME3_Pos,             /**< Shift fo
1015:Generated_Source\PSoC6\pdl\drivers/peripheral/sar/cy_sar.h **** }cy_en_sar_sample_time_shift_t;
1016:Generated_Source\PSoC6\pdl\drivers/peripheral/sar/cy_sar.h **** /* \} */
1017:Generated_Source\PSoC6\pdl\drivers/peripheral/sar/cy_sar.h **** 
1018:Generated_Source\PSoC6\pdl\drivers/peripheral/sar/cy_sar.h **** /** \addtogroup group_sar_range_thres_register_enums
ARM GAS  C:\Users\cring\AppData\Local\Temp\ccGHmfvv.s 			page 43


1019:Generated_Source\PSoC6\pdl\drivers/peripheral/sar/cy_sar.h **** * This set of enumerations aids in configuring the SAR RANGE* registers
1020:Generated_Source\PSoC6\pdl\drivers/peripheral/sar/cy_sar.h **** * \{
1021:Generated_Source\PSoC6\pdl\drivers/peripheral/sar/cy_sar.h **** */
1022:Generated_Source\PSoC6\pdl\drivers/peripheral/sar/cy_sar.h **** /** Configure the lower and upper thresholds for range detection
1023:Generated_Source\PSoC6\pdl\drivers/peripheral/sar/cy_sar.h **** *
1024:Generated_Source\PSoC6\pdl\drivers/peripheral/sar/cy_sar.h **** * The SARSEQ supports range detection to allow for automatic detection of sample
1025:Generated_Source\PSoC6\pdl\drivers/peripheral/sar/cy_sar.h **** * values compared to two programmable thresholds without CPU involvement.
1026:Generated_Source\PSoC6\pdl\drivers/peripheral/sar/cy_sar.h **** * Range detection is defined by two global thresholds and a condition.
1027:Generated_Source\PSoC6\pdl\drivers/peripheral/sar/cy_sar.h **** * The RANGE_LOW value defines the lower threshold and RANGE_HIGH defines
1028:Generated_Source\PSoC6\pdl\drivers/peripheral/sar/cy_sar.h **** * the upper threshold of the range.
1029:Generated_Source\PSoC6\pdl\drivers/peripheral/sar/cy_sar.h **** *
1030:Generated_Source\PSoC6\pdl\drivers/peripheral/sar/cy_sar.h **** * Range detect is done after averaging, alignment, and sign extension (if applicable).
1031:Generated_Source\PSoC6\pdl\drivers/peripheral/sar/cy_sar.h **** * In other words, the thresholds values must have the same data format as the result data.
1032:Generated_Source\PSoC6\pdl\drivers/peripheral/sar/cy_sar.h **** * Range detection is always done for all channels scanned. By making RANGE_INTR_MASK=0,
1033:Generated_Source\PSoC6\pdl\drivers/peripheral/sar/cy_sar.h **** * the firmware can choose to ignore the range detect interrupt for any channel.
1034:Generated_Source\PSoC6\pdl\drivers/peripheral/sar/cy_sar.h **** */
1035:Generated_Source\PSoC6\pdl\drivers/peripheral/sar/cy_sar.h **** typedef enum
1036:Generated_Source\PSoC6\pdl\drivers/peripheral/sar/cy_sar.h **** {
1037:Generated_Source\PSoC6\pdl\drivers/peripheral/sar/cy_sar.h ****     CY_SAR_RANGE_LOW_SHIFT      = SAR_RANGE_THRES_RANGE_LOW_Pos,        /**< Shift for setting lowe
1038:Generated_Source\PSoC6\pdl\drivers/peripheral/sar/cy_sar.h ****     CY_SAR_RANGE_HIGH_SHIFT     = SAR_RANGE_THRES_RANGE_HIGH_Pos,       /**< Shift for setting uppe
1039:Generated_Source\PSoC6\pdl\drivers/peripheral/sar/cy_sar.h **** }cy_en_sar_range_thres_shift_t;
1040:Generated_Source\PSoC6\pdl\drivers/peripheral/sar/cy_sar.h **** 
1041:Generated_Source\PSoC6\pdl\drivers/peripheral/sar/cy_sar.h **** /** Configure the condition (below, inside, above, or outside) of the range detection interrupt */
1042:Generated_Source\PSoC6\pdl\drivers/peripheral/sar/cy_sar.h **** typedef enum
1043:Generated_Source\PSoC6\pdl\drivers/peripheral/sar/cy_sar.h **** {
1044:Generated_Source\PSoC6\pdl\drivers/peripheral/sar/cy_sar.h ****     CY_SAR_RANGE_COND_BELOW     = 0uL,  /**< Range interrupt detected when result < RANGE_LOW */
1045:Generated_Source\PSoC6\pdl\drivers/peripheral/sar/cy_sar.h ****     CY_SAR_RANGE_COND_INSIDE    = 1uL,  /**< Range interrupt detected when RANGE_LOW <= result < RA
1046:Generated_Source\PSoC6\pdl\drivers/peripheral/sar/cy_sar.h ****     CY_SAR_RANGE_COND_ABOVE     = 2uL,  /**< Range interrupt detected when RANGE_HIGH <= result */
1047:Generated_Source\PSoC6\pdl\drivers/peripheral/sar/cy_sar.h ****     CY_SAR_RANGE_COND_OUTSIDE   = 3uL,  /**< Range interrupt detected when result < RANGE_LOW || RA
1048:Generated_Source\PSoC6\pdl\drivers/peripheral/sar/cy_sar.h **** }cy_en_sar_range_detect_condition_t;
1049:Generated_Source\PSoC6\pdl\drivers/peripheral/sar/cy_sar.h **** /* \} */
1050:Generated_Source\PSoC6\pdl\drivers/peripheral/sar/cy_sar.h **** 
1051:Generated_Source\PSoC6\pdl\drivers/peripheral/sar/cy_sar.h **** /** \addtogroup group_sar_chan_config_register_enums
1052:Generated_Source\PSoC6\pdl\drivers/peripheral/sar/cy_sar.h **** * This set of enumerations aids in configuring the SAR CHAN_CONFIG register
1053:Generated_Source\PSoC6\pdl\drivers/peripheral/sar/cy_sar.h **** * \{
1054:Generated_Source\PSoC6\pdl\drivers/peripheral/sar/cy_sar.h **** */
1055:Generated_Source\PSoC6\pdl\drivers/peripheral/sar/cy_sar.h **** /** Configure the input mode of the channel
1056:Generated_Source\PSoC6\pdl\drivers/peripheral/sar/cy_sar.h **** *
1057:Generated_Source\PSoC6\pdl\drivers/peripheral/sar/cy_sar.h **** * - Single ended channel: the \ref cy_en_sar_ctrl_neg_sel_t selection in the \ref group_sar_init_st
1058:Generated_Source\PSoC6\pdl\drivers/peripheral/sar/cy_sar.h **** *   determines what drives the Vminus pin
1059:Generated_Source\PSoC6\pdl\drivers/peripheral/sar/cy_sar.h **** * - Differential paired: Vplus and Vminus are a pair. Bit 0 of \ref cy_en_sar_chan_config_pos_pin_a
1060:Generated_Source\PSoC6\pdl\drivers/peripheral/sar/cy_sar.h **** *   is ignored and considered to be 0.
1061:Generated_Source\PSoC6\pdl\drivers/peripheral/sar/cy_sar.h **** *   In other words, \ref cy_en_sar_chan_config_pos_pin_addr_t "POS_PIN_ADDR" points to the even pin
1062:Generated_Source\PSoC6\pdl\drivers/peripheral/sar/cy_sar.h **** *   The even pin is connected to Vplus and the odd pin is connected to Vminus.
1063:Generated_Source\PSoC6\pdl\drivers/peripheral/sar/cy_sar.h **** *   \ref cy_en_sar_chan_config_pos_port_addr_t "POS_PORT_ADDR" is used to identify the port that co
1064:Generated_Source\PSoC6\pdl\drivers/peripheral/sar/cy_sar.h **** * - Differential unpaired: The \ref cy_en_sar_chan_config_neg_pin_addr_t "NEG_PIN_ADDR" and
1065:Generated_Source\PSoC6\pdl\drivers/peripheral/sar/cy_sar.h **** *   \ref cy_en_sar_chan_config_neg_port_addr_t "NEG_PORT_ADDR" determine what drives the Vminus pin
1066:Generated_Source\PSoC6\pdl\drivers/peripheral/sar/cy_sar.h **** *   This is a variation of differential mode with no even-odd pair limitation
1067:Generated_Source\PSoC6\pdl\drivers/peripheral/sar/cy_sar.h **** */
1068:Generated_Source\PSoC6\pdl\drivers/peripheral/sar/cy_sar.h **** typedef enum
1069:Generated_Source\PSoC6\pdl\drivers/peripheral/sar/cy_sar.h **** {
1070:Generated_Source\PSoC6\pdl\drivers/peripheral/sar/cy_sar.h ****     CY_SAR_CHAN_SINGLE_ENDED            = 0uL,                                     /**< Single ende
1071:Generated_Source\PSoC6\pdl\drivers/peripheral/sar/cy_sar.h ****     CY_SAR_CHAN_DIFFERENTIAL_PAIRED     = SAR_CHAN_CONFIG_DIFFERENTIAL_EN_Msk,     /**< Differentia
1072:Generated_Source\PSoC6\pdl\drivers/peripheral/sar/cy_sar.h ****     CY_SAR_CHAN_DIFFERENTIAL_UNPAIRED   = SAR_CHAN_CONFIG_NEG_ADDR_EN_Msk          /**< Differentia
1073:Generated_Source\PSoC6\pdl\drivers/peripheral/sar/cy_sar.h **** }cy_en_sar_chan_config_input_mode_t;
1074:Generated_Source\PSoC6\pdl\drivers/peripheral/sar/cy_sar.h **** 
1075:Generated_Source\PSoC6\pdl\drivers/peripheral/sar/cy_sar.h **** /** Configure address of the pin connected to the Vplus terminal of the SARADC. */
ARM GAS  C:\Users\cring\AppData\Local\Temp\ccGHmfvv.s 			page 44


1076:Generated_Source\PSoC6\pdl\drivers/peripheral/sar/cy_sar.h **** typedef enum
1077:Generated_Source\PSoC6\pdl\drivers/peripheral/sar/cy_sar.h **** {
1078:Generated_Source\PSoC6\pdl\drivers/peripheral/sar/cy_sar.h ****     CY_SAR_CHAN_POS_PIN_ADDR_0     = 0uL,                                            /**< Pin 0 on 
1079:Generated_Source\PSoC6\pdl\drivers/peripheral/sar/cy_sar.h ****     CY_SAR_CHAN_POS_PIN_ADDR_1     = 1uL << SAR_CHAN_CONFIG_POS_PIN_ADDR_Pos,        /**< Pin 1 on 
1080:Generated_Source\PSoC6\pdl\drivers/peripheral/sar/cy_sar.h ****     CY_SAR_CHAN_POS_PIN_ADDR_2     = 2uL << SAR_CHAN_CONFIG_POS_PIN_ADDR_Pos,        /**< Pin 2 on 
1081:Generated_Source\PSoC6\pdl\drivers/peripheral/sar/cy_sar.h ****     CY_SAR_CHAN_POS_PIN_ADDR_3     = 3uL << SAR_CHAN_CONFIG_POS_PIN_ADDR_Pos,        /**< Pin 3 on 
1082:Generated_Source\PSoC6\pdl\drivers/peripheral/sar/cy_sar.h ****     CY_SAR_CHAN_POS_PIN_ADDR_4     = 4uL << SAR_CHAN_CONFIG_POS_PIN_ADDR_Pos,        /**< Pin 4 on 
1083:Generated_Source\PSoC6\pdl\drivers/peripheral/sar/cy_sar.h ****     CY_SAR_CHAN_POS_PIN_ADDR_5     = 5uL << SAR_CHAN_CONFIG_POS_PIN_ADDR_Pos,        /**< Pin 5 on 
1084:Generated_Source\PSoC6\pdl\drivers/peripheral/sar/cy_sar.h ****     CY_SAR_CHAN_POS_PIN_ADDR_6     = 6uL << SAR_CHAN_CONFIG_POS_PIN_ADDR_Pos,        /**< Pin 6 on 
1085:Generated_Source\PSoC6\pdl\drivers/peripheral/sar/cy_sar.h ****     CY_SAR_CHAN_POS_PIN_ADDR_7     = 7uL << SAR_CHAN_CONFIG_POS_PIN_ADDR_Pos,        /**< Pin 7 on 
1086:Generated_Source\PSoC6\pdl\drivers/peripheral/sar/cy_sar.h **** }cy_en_sar_chan_config_pos_pin_addr_t;
1087:Generated_Source\PSoC6\pdl\drivers/peripheral/sar/cy_sar.h **** 
1088:Generated_Source\PSoC6\pdl\drivers/peripheral/sar/cy_sar.h **** /** Configure address of the port that contains the pin connected to the Vplus terminal of the SARA
1089:Generated_Source\PSoC6\pdl\drivers/peripheral/sar/cy_sar.h **** *
1090:Generated_Source\PSoC6\pdl\drivers/peripheral/sar/cy_sar.h **** * - \ref CY_SAR_POS_PORT_ADDR_SARMUX is for the dedicated SARMUX port (8 pins)
1091:Generated_Source\PSoC6\pdl\drivers/peripheral/sar/cy_sar.h **** * - Port 1 through 4 are respectively the pins of CTB0, CTB1, CTB2, and CTB3 (if present)
1092:Generated_Source\PSoC6\pdl\drivers/peripheral/sar/cy_sar.h **** * - Port 7, 5, and 6 (VPORT0/1/2) are the groups of internal signals that can be selected
1093:Generated_Source\PSoC6\pdl\drivers/peripheral/sar/cy_sar.h **** *   in the SARMUX or AROUTE (if present).
1094:Generated_Source\PSoC6\pdl\drivers/peripheral/sar/cy_sar.h **** *
1095:Generated_Source\PSoC6\pdl\drivers/peripheral/sar/cy_sar.h **** * See the \ref group_sar_sarmux section for more guidance.
1096:Generated_Source\PSoC6\pdl\drivers/peripheral/sar/cy_sar.h **** */
1097:Generated_Source\PSoC6\pdl\drivers/peripheral/sar/cy_sar.h **** typedef enum
1098:Generated_Source\PSoC6\pdl\drivers/peripheral/sar/cy_sar.h **** {
1099:Generated_Source\PSoC6\pdl\drivers/peripheral/sar/cy_sar.h ****     CY_SAR_POS_PORT_ADDR_SARMUX         = 0uL,                                       /**< Dedicated
1100:Generated_Source\PSoC6\pdl\drivers/peripheral/sar/cy_sar.h ****     CY_SAR_POS_PORT_ADDR_CTB0           = 1uL << SAR_CHAN_CONFIG_POS_PORT_ADDR_Pos,  /**< Outputs f
