ARM GAS  C:\Users\dryos\AppData\Local\Temp\cchHuJbf.s 			page 1


   1              		.syntax unified
   2              		.cpu cortex-m4
   3              		.eabi_attribute 27, 1
   4              		.fpu fpv4-sp-d16
   5              		.eabi_attribute 20, 1
   6              		.eabi_attribute 21, 1
   7              		.eabi_attribute 23, 3
   8              		.eabi_attribute 24, 1
   9              		.eabi_attribute 25, 1
  10              		.eabi_attribute 26, 1
  11              		.eabi_attribute 30, 1
  12              		.eabi_attribute 34, 1
  13              		.eabi_attribute 18, 4
  14              		.thumb
  15              		.syntax unified
  16              		.file	"kadenceControl.c"
  17              		.text
  18              	.Ltext0:
  19              		.cfi_sections	.debug_frame
  20              		.section	.text.MPU6050_init,"ax",%progbits
  21              		.align	2
  22              		.global	MPU6050_init
  23              		.thumb
  24              		.thumb_func
  25              		.type	MPU6050_init, %function
  26              	MPU6050_init:
  27              	.LFB522:
  28              		.file 1 "kadenceControl.c"
   1:kadenceControl.c **** #include "kadenceControl.h"
   2:kadenceControl.c **** #include <stdint.h>
   3:kadenceControl.c **** 
   4:kadenceControl.c **** float scaleFactor = 0;  //Divider
   5:kadenceControl.c **** int16_t CGX;            //Gyroscope x-axis values
   6:kadenceControl.c **** char uart_string[50];   //UART debugging
   7:kadenceControl.c **** 
   8:kadenceControl.c **** void CS_initKadenceSensor(uint8 FSR)
   9:kadenceControl.c **** {
  10:kadenceControl.c ****     I2C_MPU6050_Start();//Start the SC I2C
  11:kadenceControl.c ****     MPU6050_init();     //Initialize MPU6050
  12:kadenceControl.c **** 	MPU6050_initialize();
  13:kadenceControl.c ****     MPU6050_setFullScaleGyroRange(FSR);
  14:kadenceControl.c ****     //MPU6050_setDLPFMode(4); // Setting the LPF at 5Hz both Gyro and temoperature for 9250
  15:kadenceControl.c **** }
  16:kadenceControl.c **** 
  17:kadenceControl.c **** //Returnerer RPM[0], frekvens[1] og periode[2].
  18:kadenceControl.c **** float* CS_getKadence()
  19:kadenceControl.c **** {
  20:kadenceControl.c ****     static float kadenceArr[3];
  21:kadenceControl.c ****     
  22:kadenceControl.c ****     /* Get data from the MPU */
  23:kadenceControl.c ****     CGX = MPU6050_getRotationX();
  24:kadenceControl.c ****     
  25:kadenceControl.c ****     int G_Range = MPU6050_getFullScaleGyroRange();
  26:kadenceControl.c ****     
  27:kadenceControl.c ****     if      (G_Range == 0) {scaleFactor = 131;}
  28:kadenceControl.c ****     else if (G_Range == 1) {scaleFactor = 65.5;}
  29:kadenceControl.c ****     else if (G_Range == 2) {scaleFactor = 32.8;}
ARM GAS  C:\Users\dryos\AppData\Local\Temp\cchHuJbf.s 			page 2


  30:kadenceControl.c ****     else if (G_Range == 3) {scaleFactor = 16.4;}
  31:kadenceControl.c ****     
  32:kadenceControl.c ****     float degS = CGX/scaleFactor;
  33:kadenceControl.c ****     
  34:kadenceControl.c ****     float RPM = degS/6;
  35:kadenceControl.c ****     float f = RPM/60;
  36:kadenceControl.c ****     float T = 1/f;
  37:kadenceControl.c ****     
  38:kadenceControl.c ****     kadenceArr[0] = RPM;
  39:kadenceControl.c ****     kadenceArr[1] = f;
  40:kadenceControl.c ****     kadenceArr[2] = T;
  41:kadenceControl.c ****     
  42:kadenceControl.c ****     #if DEBUG_UART_ENABLED
  43:kadenceControl.c ****     //Gyroscope values debug
  44:kadenceControl.c ****     sprintf(uart_string, "X value: %i",CGX);
  45:kadenceControl.c ****     UARTprint("1", uart_string);
  46:kadenceControl.c ****     //Debugging - Print Gyroscope range
  47:kadenceControl.c ****     sprintf(uart_string, "Gyroscope range: %i", G_Range);
  48:kadenceControl.c ****     UARTprint("3", uart_string);
  49:kadenceControl.c ****     //Debugging - Print Scale Factor
  50:kadenceControl.c ****     sprintf(uart_string, "Scale Factor:  X: %f", scaleFactor);
  51:kadenceControl.c ****     UARTprint("4", uart_string);
  52:kadenceControl.c ****     //Debugging - Print Degrees/sec
  53:kadenceControl.c ****     sprintf(uart_string, "Degrees/sec X: %f", degS);
  54:kadenceControl.c ****     UARTprint("6", uart_string);
  55:kadenceControl.c ****     //Debugging - Print RPM, frekvens og periode
  56:kadenceControl.c ****     sprintf(uart_string, "RPM: %f", RPM);
  57:kadenceControl.c ****     UARTprint("8", uart_string);
  58:kadenceControl.c ****     sprintf(uart_string, "Hz: %f", f);
  59:kadenceControl.c ****     UARTprint("10", uart_string);  
  60:kadenceControl.c ****     sprintf(uart_string, "T: %f", T);
  61:kadenceControl.c ****     UARTprint("12", uart_string);
  62:kadenceControl.c ****     #endif
  63:kadenceControl.c ****     
  64:kadenceControl.c ****     return kadenceArr;
  65:kadenceControl.c **** }
  66:kadenceControl.c **** 
  67:kadenceControl.c **** 
  68:kadenceControl.c **** /** Default constructor, uses default I2C address.
  69:kadenceControl.c ****  * @see MPU6050_DEFAULT_ADDRESS
  70:kadenceControl.c ****  */
  71:kadenceControl.c **** void MPU6050_init() {
  29              		.loc 1 71 0
  30              		.cfi_startproc
  31              		@ args = 0, pretend = 0, frame = 0
  32              		@ frame_needed = 0, uses_anonymous_args = 0
  33              		@ link register save eliminated.
  72:kadenceControl.c ****     devAddr = MPU6050_DEFAULT_ADDRESS;
  34              		.loc 1 72 0
  35 0000 6822     		movs	r2, #104
  36 0002 014B     		ldr	r3, .L2
  37 0004 1A70     		strb	r2, [r3]
  38 0006 7047     		bx	lr
  39              	.L3:
  40              		.align	2
  41              	.L2:
  42 0008 00000000 		.word	devAddr
ARM GAS  C:\Users\dryos\AppData\Local\Temp\cchHuJbf.s 			page 3


  43              		.cfi_endproc
  44              	.LFE522:
  45              		.size	MPU6050_init, .-MPU6050_init
  46              		.section	.text.MPU6050_setDLPFMode,"ax",%progbits
  47              		.align	2
  48              		.global	MPU6050_setDLPFMode
  49              		.thumb
  50              		.thumb_func
  51              		.type	MPU6050_setDLPFMode, %function
  52              	MPU6050_setDLPFMode:
  53              	.LFB524:
  73:kadenceControl.c **** }
  74:kadenceControl.c **** /** Specific address constructor.
  75:kadenceControl.c ****  * @param address I2C address
  76:kadenceControl.c ****  * @see MPU6050_DEFAULT_ADDRESS
  77:kadenceControl.c ****  * @see MPU6050_ADDRESS_AD0_LOW
  78:kadenceControl.c ****  * @see MPU6050_ADDRESS_AD0_HIGH
  79:kadenceControl.c ****  */
  80:kadenceControl.c **** /** Power on and prepare for general usage.
  81:kadenceControl.c ****  * This will activate the device and take it out of sleep mode (which must be done
  82:kadenceControl.c ****  * after start-up). This function also sets both the accelerometer and the gyroscope
  83:kadenceControl.c ****  * to their most sensitive settings, namely +/- 2g and +/- 250 degrees/sec, and sets
  84:kadenceControl.c ****  * the clock source to use the X Gyro for reference, which is slightly better than
  85:kadenceControl.c ****  * the default internal clock source.
  86:kadenceControl.c ****  */
  87:kadenceControl.c **** void MPU6050_initialize() {
  88:kadenceControl.c ****     MPU6050_setClockSource(MPU6050_CLOCK_PLL_XGYRO);
  89:kadenceControl.c ****     MPU6050_setFullScaleGyroRange(MPU6050_GYRO_FS_250);
  90:kadenceControl.c **** //    MPU6050_setFullScaleAccelRange(MPU6050_ACCEL_FS_2);
  91:kadenceControl.c ****     MPU6050_setSleepEnabled(false); // thanks to Jack Elston for pointing this one out!
  92:kadenceControl.c **** }
  93:kadenceControl.c **** /** Set digital low-pass filter configuration.
  94:kadenceControl.c ****  * @param mode New DLFP configuration setting
  95:kadenceControl.c ****  * @see getDLPFBandwidth()
  96:kadenceControl.c ****  * @see MPU6050_DLPF_BW_256
  97:kadenceControl.c ****  * @see MPU6050_RA_CONFIG
  98:kadenceControl.c ****  * @see MPU6050_CFG_DLPF_CFG_BIT
  99:kadenceControl.c ****  * @see MPU6050_CFG_DLPF_CFG_LENGTH
 100:kadenceControl.c ****  */
 101:kadenceControl.c **** void MPU6050_setDLPFMode(uint8_t mode) {
  54              		.loc 1 101 0
  55              		.cfi_startproc
  56              		@ args = 0, pretend = 0, frame = 0
  57              		@ frame_needed = 0, uses_anonymous_args = 0
  58              	.LVL0:
  59 0000 10B5     		push	{r4, lr}
  60              		.cfi_def_cfa_offset 8
  61              		.cfi_offset 4, -8
  62              		.cfi_offset 14, -4
  63 0002 82B0     		sub	sp, sp, #8
  64              		.cfi_def_cfa_offset 16
 102:kadenceControl.c ****     I2CWriteBits(devAddr, MPU6050_RA_CONFIG, MPU6050_CFG_DLPF_CFG_BIT, MPU6050_CFG_DLPF_CFG_LENGTH,
  65              		.loc 1 102 0
  66 0004 054B     		ldr	r3, .L6
  67 0006 1C78     		ldrb	r4, [r3]	@ zero_extendqisi2
  68 0008 0090     		str	r0, [sp]
  69 000a 0323     		movs	r3, #3
ARM GAS  C:\Users\dryos\AppData\Local\Temp\cchHuJbf.s 			page 4


  70 000c 0222     		movs	r2, #2
  71 000e 1A21     		movs	r1, #26
  72 0010 2046     		mov	r0, r4
  73              	.LVL1:
  74 0012 FFF7FEFF 		bl	I2CWriteBits
  75              	.LVL2:
 103:kadenceControl.c **** }
  76              		.loc 1 103 0
  77 0016 02B0     		add	sp, sp, #8
  78              		.cfi_def_cfa_offset 8
  79              		@ sp needed
  80 0018 10BD     		pop	{r4, pc}
  81              	.L7:
  82 001a 00BF     		.align	2
  83              	.L6:
  84 001c 00000000 		.word	devAddr
  85              		.cfi_endproc
  86              	.LFE524:
  87              		.size	MPU6050_setDLPFMode, .-MPU6050_setDLPFMode
  88              		.section	.text.MPU6050_getFullScaleGyroRange,"ax",%progbits
  89              		.align	2
  90              		.global	MPU6050_getFullScaleGyroRange
  91              		.thumb
  92              		.thumb_func
  93              		.type	MPU6050_getFullScaleGyroRange, %function
  94              	MPU6050_getFullScaleGyroRange:
  95              	.LFB525:
 104:kadenceControl.c **** // GYRO_CONFIG register
 105:kadenceControl.c **** /** Get full-scale gyroscope range.
 106:kadenceControl.c ****  * The FS_SEL parameter allows setting the full-scale range of the gyro sensors,
 107:kadenceControl.c ****  * as described in the table below.
 108:kadenceControl.c ****  *
 109:kadenceControl.c ****  * <pre>
 110:kadenceControl.c ****  * 0 = +/- 250 degrees/sec
 111:kadenceControl.c ****  * 1 = +/- 500 degrees/sec
 112:kadenceControl.c ****  * 2 = +/- 1000 degrees/sec
 113:kadenceControl.c ****  * 3 = +/- 2000 degrees/sec
 114:kadenceControl.c ****  * </pre>
 115:kadenceControl.c ****  *
 116:kadenceControl.c ****  * @return Current full-scale gyroscope range setting
 117:kadenceControl.c ****  * @see MPU6050_GYRO_FS_250
 118:kadenceControl.c ****  * @see MPU6050_RA_GYRO_CONFIG
 119:kadenceControl.c ****  * @see MPU6050_GCONFIG_FS_SEL_BIT
 120:kadenceControl.c ****  * @see MPU6050_GCONFIG_FS_SEL_LENGTH
 121:kadenceControl.c ****  */
 122:kadenceControl.c **** uint8_t MPU6050_getFullScaleGyroRange() {
  96              		.loc 1 122 0
  97              		.cfi_startproc
  98              		@ args = 0, pretend = 0, frame = 0
  99              		@ frame_needed = 0, uses_anonymous_args = 0
 100 0000 10B5     		push	{r4, lr}
 101              		.cfi_def_cfa_offset 8
 102              		.cfi_offset 4, -8
 103              		.cfi_offset 14, -4
 104 0002 82B0     		sub	sp, sp, #8
 105              		.cfi_def_cfa_offset 16
 123:kadenceControl.c ****     I2CReadBits(devAddr, MPU6050_RA_GYRO_CONFIG, MPU6050_GCONFIG_FS_SEL_BIT, MPU6050_GCONFIG_FS_SEL
ARM GAS  C:\Users\dryos\AppData\Local\Temp\cchHuJbf.s 			page 5


 106              		.loc 1 123 0
 107 0004 054B     		ldr	r3, .L10
 108 0006 1878     		ldrb	r0, [r3]	@ zero_extendqisi2
 109 0008 054C     		ldr	r4, .L10+4
 110 000a 0094     		str	r4, [sp]
 111 000c 0223     		movs	r3, #2
 112 000e 0422     		movs	r2, #4
 113 0010 1B21     		movs	r1, #27
 114 0012 FFF7FEFF 		bl	I2CReadBits
 115              	.LVL3:
 124:kadenceControl.c ****     return buffer[0];
 125:kadenceControl.c **** }
 116              		.loc 1 125 0
 117 0016 2078     		ldrb	r0, [r4]	@ zero_extendqisi2
 118 0018 02B0     		add	sp, sp, #8
 119              		.cfi_def_cfa_offset 8
 120              		@ sp needed
 121 001a 10BD     		pop	{r4, pc}
 122              	.L11:
 123              		.align	2
 124              	.L10:
 125 001c 00000000 		.word	devAddr
 126 0020 00000000 		.word	buffer
 127              		.cfi_endproc
 128              	.LFE525:
 129              		.size	MPU6050_getFullScaleGyroRange, .-MPU6050_getFullScaleGyroRange
 130              		.section	.text.MPU6050_setFullScaleGyroRange,"ax",%progbits
 131              		.align	2
 132              		.global	MPU6050_setFullScaleGyroRange
 133              		.thumb
 134              		.thumb_func
 135              		.type	MPU6050_setFullScaleGyroRange, %function
 136              	MPU6050_setFullScaleGyroRange:
 137              	.LFB526:
 126:kadenceControl.c **** /** Set full-scale gyroscope range.
 127:kadenceControl.c ****  * @param range New full-scale gyroscope range value
 128:kadenceControl.c ****  * @see getFullScaleRange()
 129:kadenceControl.c ****  * @see MPU6050_GYRO_FS_250
 130:kadenceControl.c ****  * @see MPU6050_RA_GYRO_CONFIG
 131:kadenceControl.c ****  * @see MPU6050_GCONFIG_FS_SEL_BIT
 132:kadenceControl.c ****  * @see MPU6050_GCONFIG_FS_SEL_LENGTH
 133:kadenceControl.c ****  */
 134:kadenceControl.c **** void MPU6050_setFullScaleGyroRange(uint8_t range) {
 138              		.loc 1 134 0
 139              		.cfi_startproc
 140              		@ args = 0, pretend = 0, frame = 0
 141              		@ frame_needed = 0, uses_anonymous_args = 0
 142              	.LVL4:
 143 0000 10B5     		push	{r4, lr}
 144              		.cfi_def_cfa_offset 8
 145              		.cfi_offset 4, -8
 146              		.cfi_offset 14, -4
 147 0002 82B0     		sub	sp, sp, #8
 148              		.cfi_def_cfa_offset 16
 135:kadenceControl.c ****     I2CWriteBits(devAddr, MPU6050_RA_GYRO_CONFIG, MPU6050_GCONFIG_FS_SEL_BIT, MPU6050_GCONFIG_FS_SE
 149              		.loc 1 135 0
 150 0004 054B     		ldr	r3, .L14
ARM GAS  C:\Users\dryos\AppData\Local\Temp\cchHuJbf.s 			page 6


 151 0006 1C78     		ldrb	r4, [r3]	@ zero_extendqisi2
 152 0008 0090     		str	r0, [sp]
 153 000a 0223     		movs	r3, #2
 154 000c 0422     		movs	r2, #4
 155 000e 1B21     		movs	r1, #27
 156 0010 2046     		mov	r0, r4
 157              	.LVL5:
 158 0012 FFF7FEFF 		bl	I2CWriteBits
 159              	.LVL6:
 136:kadenceControl.c **** }
 160              		.loc 1 136 0
 161 0016 02B0     		add	sp, sp, #8
 162              		.cfi_def_cfa_offset 8
 163              		@ sp needed
 164 0018 10BD     		pop	{r4, pc}
 165              	.L15:
 166 001a 00BF     		.align	2
 167              	.L14:
 168 001c 00000000 		.word	devAddr
 169              		.cfi_endproc
 170              	.LFE526:
 171              		.size	MPU6050_setFullScaleGyroRange, .-MPU6050_setFullScaleGyroRange
 172              		.section	.text.MPU6050_getRotationX,"ax",%progbits
 173              		.align	2
 174              		.global	MPU6050_getRotationX
 175              		.thumb
 176              		.thumb_func
 177              		.type	MPU6050_getRotationX, %function
 178              	MPU6050_getRotationX:
 179              	.LFB527:
 137:kadenceControl.c **** /** Get X-axis gyroscope reading.
 138:kadenceControl.c ****  * @return X-axis rotation measurement in 16-bit 2's complement format
 139:kadenceControl.c ****  * @see getMotion6()
 140:kadenceControl.c ****  * @see MPU6050_RA_GYRO_XOUT_H
 141:kadenceControl.c ****  */
 142:kadenceControl.c **** int16_t MPU6050_getRotationX() {
 180              		.loc 1 142 0
 181              		.cfi_startproc
 182              		@ args = 0, pretend = 0, frame = 0
 183              		@ frame_needed = 0, uses_anonymous_args = 0
 184 0000 10B5     		push	{r4, lr}
 185              		.cfi_def_cfa_offset 8
 186              		.cfi_offset 4, -8
 187              		.cfi_offset 14, -4
 143:kadenceControl.c ****     I2CReadBytes(devAddr, MPU6050_RA_GYRO_XOUT_H, 2, buffer);
 188              		.loc 1 143 0
 189 0002 074C     		ldr	r4, .L18
 190 0004 2346     		mov	r3, r4
 191 0006 0222     		movs	r2, #2
 192 0008 4321     		movs	r1, #67
 193 000a 0648     		ldr	r0, .L18+4
 194 000c 0078     		ldrb	r0, [r0]	@ zero_extendqisi2
 195 000e FFF7FEFF 		bl	I2CReadBytes
 196              	.LVL7:
 144:kadenceControl.c ****     return (((int16_t)buffer[0]) << 8) | buffer[1];
 197              		.loc 1 144 0
 198 0012 2078     		ldrb	r0, [r4]	@ zero_extendqisi2
ARM GAS  C:\Users\dryos\AppData\Local\Temp\cchHuJbf.s 			page 7


 199 0014 6378     		ldrb	r3, [r4, #1]	@ zero_extendqisi2
 200 0016 43EA0020 		orr	r0, r3, r0, lsl #8
 145:kadenceControl.c **** }
 201              		.loc 1 145 0
 202 001a 00B2     		sxth	r0, r0
 203 001c 10BD     		pop	{r4, pc}
 204              	.L19:
 205 001e 00BF     		.align	2
 206              	.L18:
 207 0020 00000000 		.word	buffer
 208 0024 00000000 		.word	devAddr
 209              		.cfi_endproc
 210              	.LFE527:
 211              		.size	MPU6050_getRotationX, .-MPU6050_getRotationX
 212              		.global	__aeabi_f2d
 213              		.section	.text.CS_getKadence,"ax",%progbits
 214              		.align	2
 215              		.global	CS_getKadence
 216              		.thumb
 217              		.thumb_func
 218              		.type	CS_getKadence, %function
 219              	CS_getKadence:
 220              	.LFB521:
  19:kadenceControl.c ****     static float kadenceArr[3];
 221              		.loc 1 19 0
 222              		.cfi_startproc
 223              		@ args = 0, pretend = 0, frame = 0
 224              		@ frame_needed = 0, uses_anonymous_args = 0
 225 0000 70B5     		push	{r4, r5, r6, lr}
 226              		.cfi_def_cfa_offset 16
 227              		.cfi_offset 4, -16
 228              		.cfi_offset 5, -12
 229              		.cfi_offset 6, -8
 230              		.cfi_offset 14, -4
 231 0002 2DED048B 		vpush.64	{d8, d9}
 232              		.cfi_def_cfa_offset 32
 233              		.cfi_offset 80, -32
 234              		.cfi_offset 81, -28
 235              		.cfi_offset 82, -24
 236              		.cfi_offset 83, -20
  23:kadenceControl.c ****     
 237              		.loc 1 23 0
 238 0006 FFF7FEFF 		bl	MPU6050_getRotationX
 239              	.LVL8:
 240 000a 4A4B     		ldr	r3, .L26
 241 000c 1880     		strh	r0, [r3]	@ movhi
  25:kadenceControl.c ****     
 242              		.loc 1 25 0
 243 000e FFF7FEFF 		bl	MPU6050_getFullScaleGyroRange
 244              	.LVL9:
  27:kadenceControl.c ****     else if (G_Range == 1) {scaleFactor = 65.5;}
 245              		.loc 1 27 0
 246 0012 0646     		mov	r6, r0
 247 0014 18B9     		cbnz	r0, .L21
  27:kadenceControl.c ****     else if (G_Range == 1) {scaleFactor = 65.5;}
 248              		.loc 1 27 0 is_stmt 0 discriminator 1
 249 0016 484A     		ldr	r2, .L26+4
ARM GAS  C:\Users\dryos\AppData\Local\Temp\cchHuJbf.s 			page 8


 250 0018 484B     		ldr	r3, .L26+8
 251 001a 1A60     		str	r2, [r3]	@ float
 252 001c 10E0     		b	.L22
 253              	.L21:
  28:kadenceControl.c ****     else if (G_Range == 2) {scaleFactor = 32.8;}
 254              		.loc 1 28 0 is_stmt 1
 255 001e 0128     		cmp	r0, #1
 256 0020 03D1     		bne	.L23
  28:kadenceControl.c ****     else if (G_Range == 2) {scaleFactor = 32.8;}
 257              		.loc 1 28 0 is_stmt 0 discriminator 1
 258 0022 474A     		ldr	r2, .L26+12
 259 0024 454B     		ldr	r3, .L26+8
 260 0026 1A60     		str	r2, [r3]	@ float
 261 0028 0AE0     		b	.L22
 262              	.L23:
  29:kadenceControl.c ****     else if (G_Range == 3) {scaleFactor = 16.4;}
 263              		.loc 1 29 0 is_stmt 1
 264 002a 0228     		cmp	r0, #2
 265 002c 03D1     		bne	.L24
  29:kadenceControl.c ****     else if (G_Range == 3) {scaleFactor = 16.4;}
 266              		.loc 1 29 0 is_stmt 0 discriminator 1
 267 002e 454A     		ldr	r2, .L26+16
 268 0030 424B     		ldr	r3, .L26+8
 269 0032 1A60     		str	r2, [r3]	@ float
 270 0034 04E0     		b	.L22
 271              	.L24:
  30:kadenceControl.c ****     
 272              		.loc 1 30 0 is_stmt 1
 273 0036 0328     		cmp	r0, #3
 274 0038 02D1     		bne	.L22
  30:kadenceControl.c ****     
 275              		.loc 1 30 0 is_stmt 0 discriminator 1
 276 003a 434A     		ldr	r2, .L26+20
 277 003c 3F4B     		ldr	r3, .L26+8
 278 003e 1A60     		str	r2, [r3]	@ float
 279              	.L22:
  32:kadenceControl.c ****     
 280              		.loc 1 32 0 is_stmt 1
 281 0040 3C4B     		ldr	r3, .L26
 282 0042 B3F90020 		ldrsh	r2, [r3]
 283 0046 07EE902A 		vmov	s15, r2	@ int
 284 004a B8EEE77A 		vcvt.f32.s32	s14, s15
 285 004e 3B4D     		ldr	r5, .L26+8
 286 0050 D5ED007A 		vldr.32	s15, [r5]
 287 0054 C7EE279A 		vdiv.f32	s19, s14, s15
 288              	.LVL10:
  34:kadenceControl.c ****     float f = RPM/60;
 289              		.loc 1 34 0
 290 0058 F1EE087A 		vmov.f32	s15, #6.0e+0
 291 005c C9EEA78A 		vdiv.f32	s17, s19, s15
 292              	.LVL11:
  35:kadenceControl.c ****     float T = 1/f;
 293              		.loc 1 35 0
 294 0060 DFED3A7A 		vldr.32	s15, .L26+24
 295 0064 88EEA78A 		vdiv.f32	s16, s17, s15
 296              	.LVL12:
  36:kadenceControl.c ****     
ARM GAS  C:\Users\dryos\AppData\Local\Temp\cchHuJbf.s 			page 9


 297              		.loc 1 36 0
 298 0068 F7EE007A 		vmov.f32	s15, #1.0e+0
 299 006c 87EE889A 		vdiv.f32	s18, s15, s16
 300              	.LVL13:
  38:kadenceControl.c ****     kadenceArr[1] = f;
 301              		.loc 1 38 0
 302 0070 C5ED018A 		vstr.32	s17, [r5, #4]
  39:kadenceControl.c ****     kadenceArr[2] = T;
 303              		.loc 1 39 0
 304 0074 85ED028A 		vstr.32	s16, [r5, #8]
  40:kadenceControl.c ****     
 305              		.loc 1 40 0
 306 0078 85ED039A 		vstr.32	s18, [r5, #12]
  44:kadenceControl.c ****     UARTprint("1", uart_string);
 307              		.loc 1 44 0
 308 007c 344C     		ldr	r4, .L26+28
 309 007e 3549     		ldr	r1, .L26+32
 310 0080 2046     		mov	r0, r4
 311              	.LVL14:
 312 0082 FFF7FEFF 		bl	sprintf
 313              	.LVL15:
  45:kadenceControl.c ****     //Debugging - Print Gyroscope range
 314              		.loc 1 45 0
 315 0086 2146     		mov	r1, r4
 316 0088 3348     		ldr	r0, .L26+36
 317 008a FFF7FEFF 		bl	UARTprint
 318              	.LVL16:
  47:kadenceControl.c ****     UARTprint("3", uart_string);
 319              		.loc 1 47 0
 320 008e 3246     		mov	r2, r6
 321 0090 3249     		ldr	r1, .L26+40
 322 0092 2046     		mov	r0, r4
 323 0094 FFF7FEFF 		bl	sprintf
 324              	.LVL17:
  48:kadenceControl.c ****     //Debugging - Print Scale Factor
 325              		.loc 1 48 0
 326 0098 2146     		mov	r1, r4
 327 009a 3148     		ldr	r0, .L26+44
 328 009c FFF7FEFF 		bl	UARTprint
 329              	.LVL18:
  50:kadenceControl.c ****     UARTprint("4", uart_string);
 330              		.loc 1 50 0
 331 00a0 55F8040B 		ldr	r0, [r5], #4	@ float
 332 00a4 FFF7FEFF 		bl	__aeabi_f2d
 333              	.LVL19:
 334 00a8 0246     		mov	r2, r0
 335 00aa 0B46     		mov	r3, r1
 336 00ac 2D49     		ldr	r1, .L26+48
 337 00ae 2046     		mov	r0, r4
 338 00b0 FFF7FEFF 		bl	sprintf
 339              	.LVL20:
  51:kadenceControl.c ****     //Debugging - Print Degrees/sec
 340              		.loc 1 51 0
 341 00b4 2146     		mov	r1, r4
 342 00b6 2C48     		ldr	r0, .L26+52
 343 00b8 FFF7FEFF 		bl	UARTprint
 344              	.LVL21:
ARM GAS  C:\Users\dryos\AppData\Local\Temp\cchHuJbf.s 			page 10


  53:kadenceControl.c ****     UARTprint("6", uart_string);
 345              		.loc 1 53 0
 346 00bc 19EE900A 		vmov	r0, s19
 347 00c0 FFF7FEFF 		bl	__aeabi_f2d
 348              	.LVL22:
 349 00c4 0246     		mov	r2, r0
 350 00c6 0B46     		mov	r3, r1
 351 00c8 2849     		ldr	r1, .L26+56
 352 00ca 2046     		mov	r0, r4
 353 00cc FFF7FEFF 		bl	sprintf
 354              	.LVL23:
  54:kadenceControl.c ****     //Debugging - Print RPM, frekvens og periode
 355              		.loc 1 54 0
 356 00d0 2146     		mov	r1, r4
 357 00d2 2748     		ldr	r0, .L26+60
 358 00d4 FFF7FEFF 		bl	UARTprint
 359              	.LVL24:
  56:kadenceControl.c ****     UARTprint("8", uart_string);
 360              		.loc 1 56 0
 361 00d8 18EE900A 		vmov	r0, s17
 362 00dc FFF7FEFF 		bl	__aeabi_f2d
 363              	.LVL25:
 364 00e0 0246     		mov	r2, r0
 365 00e2 0B46     		mov	r3, r1
 366 00e4 2349     		ldr	r1, .L26+64
 367 00e6 2046     		mov	r0, r4
 368 00e8 FFF7FEFF 		bl	sprintf
 369              	.LVL26:
  57:kadenceControl.c ****     sprintf(uart_string, "Hz: %f", f);
 370              		.loc 1 57 0
 371 00ec 2146     		mov	r1, r4
 372 00ee 2248     		ldr	r0, .L26+68
 373 00f0 FFF7FEFF 		bl	UARTprint
 374              	.LVL27:
  58:kadenceControl.c ****     UARTprint("10", uart_string);  
 375              		.loc 1 58 0
 376 00f4 18EE100A 		vmov	r0, s16
 377 00f8 FFF7FEFF 		bl	__aeabi_f2d
 378              	.LVL28:
 379 00fc 0246     		mov	r2, r0
 380 00fe 0B46     		mov	r3, r1
 381 0100 1E49     		ldr	r1, .L26+72
 382 0102 2046     		mov	r0, r4
 383 0104 FFF7FEFF 		bl	sprintf
 384              	.LVL29:
  59:kadenceControl.c ****     sprintf(uart_string, "T: %f", T);
 385              		.loc 1 59 0
 386 0108 2146     		mov	r1, r4
 387 010a 1D48     		ldr	r0, .L26+76
 388 010c FFF7FEFF 		bl	UARTprint
 389              	.LVL30:
  60:kadenceControl.c ****     UARTprint("12", uart_string);
 390              		.loc 1 60 0
 391 0110 19EE100A 		vmov	r0, s18
 392 0114 FFF7FEFF 		bl	__aeabi_f2d
 393              	.LVL31:
 394 0118 0246     		mov	r2, r0
ARM GAS  C:\Users\dryos\AppData\Local\Temp\cchHuJbf.s 			page 11


 395 011a 0B46     		mov	r3, r1
 396 011c 1949     		ldr	r1, .L26+80
 397 011e 2046     		mov	r0, r4
 398 0120 FFF7FEFF 		bl	sprintf
 399              	.LVL32:
  61:kadenceControl.c ****     #endif
 400              		.loc 1 61 0
 401 0124 2146     		mov	r1, r4
 402 0126 1848     		ldr	r0, .L26+84
 403 0128 FFF7FEFF 		bl	UARTprint
 404              	.LVL33:
  65:kadenceControl.c **** 
 405              		.loc 1 65 0
 406 012c 2846     		mov	r0, r5
 407 012e BDEC048B 		vldm	sp!, {d8-d9}
 408              		.cfi_restore 82
 409              		.cfi_restore 83
 410              		.cfi_restore 80
 411              		.cfi_restore 81
 412              		.cfi_def_cfa_offset 16
 413              	.LVL34:
 414 0132 70BD     		pop	{r4, r5, r6, pc}
 415              	.LVL35:
 416              	.L27:
 417              		.align	2
 418              	.L26:
 419 0134 00000000 		.word	CGX
 420 0138 00000343 		.word	1124270080
 421 013c 00000000 		.word	.LANCHOR0
 422 0140 00008342 		.word	1115881472
 423 0144 33330342 		.word	1107505971
 424 0148 33338341 		.word	1099117363
 425 014c 00007042 		.word	1114636288
 426 0150 00000000 		.word	uart_string
 427 0154 00000000 		.word	.LC0
 428 0158 0C000000 		.word	.LC1
 429 015c 10000000 		.word	.LC2
 430 0160 24000000 		.word	.LC3
 431 0164 28000000 		.word	.LC4
 432 0168 40000000 		.word	.LC5
 433 016c 44000000 		.word	.LC6
 434 0170 58000000 		.word	.LC7
 435 0174 5C000000 		.word	.LC8
 436 0178 64000000 		.word	.LC9
 437 017c 68000000 		.word	.LC10
 438 0180 70000000 		.word	.LC11
 439 0184 74000000 		.word	.LC12
 440 0188 7C000000 		.word	.LC13
 441              		.cfi_endproc
 442              	.LFE521:
 443              		.size	CS_getKadence, .-CS_getKadence
 444              		.section	.text.MPU6050_setSleepEnabled,"ax",%progbits
 445              		.align	2
 446              		.global	MPU6050_setSleepEnabled
 447              		.thumb
 448              		.thumb_func
 449              		.type	MPU6050_setSleepEnabled, %function
ARM GAS  C:\Users\dryos\AppData\Local\Temp\cchHuJbf.s 			page 12


 450              	MPU6050_setSleepEnabled:
 451              	.LFB528:
 146:kadenceControl.c **** /** Set sleep mode status.
 147:kadenceControl.c ****  * @param enabled New sleep mode enabled status
 148:kadenceControl.c ****  * @see getSleepEnabled()
 149:kadenceControl.c ****  * @see MPU6050_RA_PWR_MGMT_1
 150:kadenceControl.c ****  * @see MPU6050_PWR1_SLEEP_BIT
 151:kadenceControl.c ****  */
 152:kadenceControl.c **** void MPU6050_setSleepEnabled(bool enabled) {
 452              		.loc 1 152 0
 453              		.cfi_startproc
 454              		@ args = 0, pretend = 0, frame = 0
 455              		@ frame_needed = 0, uses_anonymous_args = 0
 456              	.LVL36:
 457 0000 08B5     		push	{r3, lr}
 458              		.cfi_def_cfa_offset 8
 459              		.cfi_offset 3, -8
 460              		.cfi_offset 14, -4
 153:kadenceControl.c ****     I2CWriteBit(devAddr, MPU6050_RA_PWR_MGMT_1, MPU6050_PWR1_SLEEP_BIT, enabled);
 461              		.loc 1 153 0
 462 0002 0346     		mov	r3, r0
 463 0004 0622     		movs	r2, #6
 464 0006 6B21     		movs	r1, #107
 465 0008 0248     		ldr	r0, .L30
 466              	.LVL37:
 467 000a 0078     		ldrb	r0, [r0]	@ zero_extendqisi2
 468 000c FFF7FEFF 		bl	I2CWriteBit
 469              	.LVL38:
 470 0010 08BD     		pop	{r3, pc}
 471              	.L31:
 472 0012 00BF     		.align	2
 473              	.L30:
 474 0014 00000000 		.word	devAddr
 475              		.cfi_endproc
 476              	.LFE528:
 477              		.size	MPU6050_setSleepEnabled, .-MPU6050_setSleepEnabled
 478              		.section	.text.MPU6050_setClockSource,"ax",%progbits
 479              		.align	2
 480              		.global	MPU6050_setClockSource
 481              		.thumb
 482              		.thumb_func
 483              		.type	MPU6050_setClockSource, %function
 484              	MPU6050_setClockSource:
 485              	.LFB529:
 154:kadenceControl.c **** }
 155:kadenceControl.c **** /** Set clock source setting.
 156:kadenceControl.c ****  * An internal 8MHz oscillator, gyroscope based clock, or external sources can
 157:kadenceControl.c ****  * be selected as the MPU-60X0 clock source. When the internal 8 MHz oscillator
 158:kadenceControl.c ****  * or an external source is chosen as the clock source, the MPU-60X0 can operate
 159:kadenceControl.c ****  * in low power modes with the gyroscopes disabled.
 160:kadenceControl.c ****  *
 161:kadenceControl.c ****  * Upon power up, the MPU-60X0 clock source defaults to the internal oscillator.
 162:kadenceControl.c ****  * However, it is highly recommended that the device be configured to use one of
 163:kadenceControl.c ****  * the gyroscopes (or an external clock source) as the clock reference for
 164:kadenceControl.c ****  * improved stability. The clock source can be selected according to the following table:
 165:kadenceControl.c ****  *
 166:kadenceControl.c ****  * <pre>
ARM GAS  C:\Users\dryos\AppData\Local\Temp\cchHuJbf.s 			page 13


 167:kadenceControl.c ****  * CLK_SEL | Clock Source
 168:kadenceControl.c ****  * --------+--------------------------------------
 169:kadenceControl.c ****  * 0       | Internal oscillator
 170:kadenceControl.c ****  * 1       | PLL with X Gyro reference
 171:kadenceControl.c ****  * 2       | PLL with Y Gyro reference
 172:kadenceControl.c ****  * 3       | PLL with Z Gyro reference
 173:kadenceControl.c ****  * 4       | PLL with external 32.768kHz reference
 174:kadenceControl.c ****  * 5       | PLL with external 19.2MHz reference
 175:kadenceControl.c ****  * 6       | Reserved
 176:kadenceControl.c ****  * 7       | Stops the clock and keeps the timing generator in reset
 177:kadenceControl.c ****  * </pre>
 178:kadenceControl.c ****  *
 179:kadenceControl.c ****  * @param source New clock source setting
 180:kadenceControl.c ****  * @see getClockSource()
 181:kadenceControl.c ****  * @see MPU6050_RA_PWR_MGMT_1
 182:kadenceControl.c ****  * @see MPU6050_PWR1_CLKSEL_BIT
 183:kadenceControl.c ****  * @see MPU6050_PWR1_CLKSEL_LENGTH
 184:kadenceControl.c ****  */
 185:kadenceControl.c **** void MPU6050_setClockSource(uint8_t source) {
 486              		.loc 1 185 0
 487              		.cfi_startproc
 488              		@ args = 0, pretend = 0, frame = 0
 489              		@ frame_needed = 0, uses_anonymous_args = 0
 490              	.LVL39:
 491 0000 10B5     		push	{r4, lr}
 492              		.cfi_def_cfa_offset 8
 493              		.cfi_offset 4, -8
 494              		.cfi_offset 14, -4
 495 0002 82B0     		sub	sp, sp, #8
 496              		.cfi_def_cfa_offset 16
 186:kadenceControl.c ****     I2CWriteBits(devAddr, MPU6050_RA_PWR_MGMT_1, MPU6050_PWR1_CLKSEL_BIT, MPU6050_PWR1_CLKSEL_LENGT
 497              		.loc 1 186 0
 498 0004 054B     		ldr	r3, .L34
 499 0006 1C78     		ldrb	r4, [r3]	@ zero_extendqisi2
 500 0008 0090     		str	r0, [sp]
 501 000a 0323     		movs	r3, #3
 502 000c 0222     		movs	r2, #2
 503 000e 6B21     		movs	r1, #107
 504 0010 2046     		mov	r0, r4
 505              	.LVL40:
 506 0012 FFF7FEFF 		bl	I2CWriteBits
 507              	.LVL41:
 187:kadenceControl.c **** }
 508              		.loc 1 187 0
 509 0016 02B0     		add	sp, sp, #8
 510              		.cfi_def_cfa_offset 8
 511              		@ sp needed
 512 0018 10BD     		pop	{r4, pc}
 513              	.L35:
 514 001a 00BF     		.align	2
 515              	.L34:
 516 001c 00000000 		.word	devAddr
 517              		.cfi_endproc
 518              	.LFE529:
 519              		.size	MPU6050_setClockSource, .-MPU6050_setClockSource
 520              		.section	.text.MPU6050_initialize,"ax",%progbits
 521              		.align	2
ARM GAS  C:\Users\dryos\AppData\Local\Temp\cchHuJbf.s 			page 14


 522              		.global	MPU6050_initialize
 523              		.thumb
 524              		.thumb_func
 525              		.type	MPU6050_initialize, %function
 526              	MPU6050_initialize:
 527              	.LFB523:
  87:kadenceControl.c ****     MPU6050_setClockSource(MPU6050_CLOCK_PLL_XGYRO);
 528              		.loc 1 87 0
 529              		.cfi_startproc
 530              		@ args = 0, pretend = 0, frame = 0
 531              		@ frame_needed = 0, uses_anonymous_args = 0
 532 0000 08B5     		push	{r3, lr}
 533              		.cfi_def_cfa_offset 8
 534              		.cfi_offset 3, -8
 535              		.cfi_offset 14, -4
  88:kadenceControl.c ****     MPU6050_setFullScaleGyroRange(MPU6050_GYRO_FS_250);
 536              		.loc 1 88 0
 537 0002 0120     		movs	r0, #1
 538 0004 FFF7FEFF 		bl	MPU6050_setClockSource
 539              	.LVL42:
  89:kadenceControl.c **** //    MPU6050_setFullScaleAccelRange(MPU6050_ACCEL_FS_2);
 540              		.loc 1 89 0
 541 0008 0020     		movs	r0, #0
 542 000a FFF7FEFF 		bl	MPU6050_setFullScaleGyroRange
 543              	.LVL43:
  91:kadenceControl.c **** }
 544              		.loc 1 91 0
 545 000e 0020     		movs	r0, #0
 546 0010 FFF7FEFF 		bl	MPU6050_setSleepEnabled
 547              	.LVL44:
 548 0014 08BD     		pop	{r3, pc}
 549              		.cfi_endproc
 550              	.LFE523:
 551              		.size	MPU6050_initialize, .-MPU6050_initialize
 552 0016 00BF     		.section	.text.CS_initKadenceSensor,"ax",%progbits
 553              		.align	2
 554              		.global	CS_initKadenceSensor
 555              		.thumb
 556              		.thumb_func
 557              		.type	CS_initKadenceSensor, %function
 558              	CS_initKadenceSensor:
 559              	.LFB520:
   9:kadenceControl.c ****     I2C_MPU6050_Start();//Start the SC I2C
 560              		.loc 1 9 0
 561              		.cfi_startproc
 562              		@ args = 0, pretend = 0, frame = 0
 563              		@ frame_needed = 0, uses_anonymous_args = 0
 564              	.LVL45:
 565 0000 10B5     		push	{r4, lr}
 566              		.cfi_def_cfa_offset 8
 567              		.cfi_offset 4, -8
 568              		.cfi_offset 14, -4
 569 0002 0446     		mov	r4, r0
  10:kadenceControl.c ****     MPU6050_init();     //Initialize MPU6050
 570              		.loc 1 10 0
 571 0004 FFF7FEFF 		bl	I2C_MPU6050_Start
 572              	.LVL46:
ARM GAS  C:\Users\dryos\AppData\Local\Temp\cchHuJbf.s 			page 15


  11:kadenceControl.c **** 	MPU6050_initialize();
 573              		.loc 1 11 0
 574 0008 FFF7FEFF 		bl	MPU6050_init
 575              	.LVL47:
  12:kadenceControl.c ****     MPU6050_setFullScaleGyroRange(FSR);
 576              		.loc 1 12 0
 577 000c FFF7FEFF 		bl	MPU6050_initialize
 578              	.LVL48:
  13:kadenceControl.c ****     //MPU6050_setDLPFMode(4); // Setting the LPF at 5Hz both Gyro and temoperature for 9250
 579              		.loc 1 13 0
 580 0010 2046     		mov	r0, r4
 581 0012 FFF7FEFF 		bl	MPU6050_setFullScaleGyroRange
 582              	.LVL49:
 583 0016 10BD     		pop	{r4, pc}
 584              		.cfi_endproc
 585              	.LFE520:
 586              		.size	CS_initKadenceSensor, .-CS_initKadenceSensor
 587              		.comm	uart_string,50,4
 588              		.comm	CGX,2,2
 589              		.global	scaleFactor
 590              		.comm	buffer,22,4
 591              		.comm	devAddr,1,1
 592              		.section	.rodata.str1.4,"aMS",%progbits,1
 593              		.align	2
 594              	.LC0:
 595 0000 58207661 		.ascii	"X value: %i\000"
 595      6C75653A 
 595      20256900 
 596              	.LC1:
 597 000c 3100     		.ascii	"1\000"
 598 000e 0000     		.space	2
 599              	.LC2:
 600 0010 4779726F 		.ascii	"Gyroscope range: %i\000"
 600      73636F70 
 600      65207261 
 600      6E67653A 
 600      20256900 
 601              	.LC3:
 602 0024 3300     		.ascii	"3\000"
 603 0026 0000     		.space	2
 604              	.LC4:
 605 0028 5363616C 		.ascii	"Scale Factor:  X: %f\000"
 605      65204661 
 605      63746F72 
 605      3A202058 
 605      3A202566 
 606 003d 000000   		.space	3
 607              	.LC5:
 608 0040 3400     		.ascii	"4\000"
 609 0042 0000     		.space	2
 610              	.LC6:
 611 0044 44656772 		.ascii	"Degrees/sec X: %f\000"
 611      6565732F 
 611      73656320 
 611      583A2025 
 611      6600
 612 0056 0000     		.space	2
ARM GAS  C:\Users\dryos\AppData\Local\Temp\cchHuJbf.s 			page 16


 613              	.LC7:
 614 0058 3600     		.ascii	"6\000"
 615 005a 0000     		.space	2
 616              	.LC8:
 617 005c 52504D3A 		.ascii	"RPM: %f\000"
 617      20256600 
 618              	.LC9:
 619 0064 3800     		.ascii	"8\000"
 620 0066 0000     		.space	2
 621              	.LC10:
 622 0068 487A3A20 		.ascii	"Hz: %f\000"
 622      256600
 623 006f 00       		.space	1
 624              	.LC11:
 625 0070 313000   		.ascii	"10\000"
 626 0073 00       		.space	1
 627              	.LC12:
 628 0074 543A2025 		.ascii	"T: %f\000"
 628      6600
 629 007a 0000     		.space	2
 630              	.LC13:
 631 007c 313200   		.ascii	"12\000"
 632              		.bss
 633              		.align	2
 634              		.set	.LANCHOR0,. + 0
 635              		.type	scaleFactor, %object
 636              		.size	scaleFactor, 4
 637              	scaleFactor:
 638 0000 00000000 		.space	4
 639              		.type	kadenceArr.17971, %object
 640              		.size	kadenceArr.17971, 12
 641              	kadenceArr.17971:
 642 0004 00000000 		.space	12
 642      00000000 
 642      00000000 
 643              		.text
 644              	.Letext0:
 645              		.file 2 "c:\\program files (x86)\\cypress\\psoc creator\\4.4\\psoc creator\\import\\gnu\\arm\\5.4.
 646              		.file 3 "c:\\program files (x86)\\cypress\\psoc creator\\4.4\\psoc creator\\import\\gnu\\arm\\5.4.
 647              		.file 4 "Generated_Source\\PSoC6\\pdl\\drivers/peripheral/device/cy_device.h"
 648              		.file 5 "Generated_Source\\PSoC6\\pdl\\drivers/peripheral/syslib/cy_syslib.h"
 649              		.file 6 "Generated_Source\\PSoC6\\pdl\\drivers/peripheral/scb/cy_scb_i2c.h"
 650              		.file 7 "Generated_Source\\PSoC6\\pdl\\drivers/peripheral/scb/cy_scb_uart.h"
 651              		.file 8 "Generated_Source\\PSoC6\\pdl\\middleware/ble/cy_ble_stack.h"
 652              		.file 9 "Generated_Source\\PSoC6\\pdl\\middleware/ble/cy_ble_stack_host_main.h"
 653              		.file 10 "Generated_Source\\PSoC6\\pdl\\middleware/ble/cy_ble_gap.h"
 654              		.file 11 "Generated_Source\\PSoC6\\pdl\\cmsis/include/core_cm4.h"
 655              		.file 12 "Generated_Source\\PSoC6/UART_DEB.h"
 656              		.file 13 "Generated_Source\\PSoC6/I2C_MPU6050.h"
 657              		.file 14 "kadenceControl.h"
 658              		.file 15 "i2cFunctions.h"
 659              		.file 16 "c:\\program files (x86)\\cypress\\psoc creator\\4.4\\psoc creator\\import\\gnu\\arm\\5.4
 660              		.file 17 "VT100Terminal.h"