ARM GAS  C:\Users\cring\AppData\Local\Temp\cc5WibDE.s 			page 1


   1              		.syntax unified
   2              		.cpu cortex-m4
   3              		.eabi_attribute 27, 1
   4              		.fpu fpv4-sp-d16
   5              		.eabi_attribute 20, 1
   6              		.eabi_attribute 21, 1
   7              		.eabi_attribute 23, 3
   8              		.eabi_attribute 24, 1
   9              		.eabi_attribute 25, 1
  10              		.eabi_attribute 26, 1
  11              		.eabi_attribute 30, 1
  12              		.eabi_attribute 34, 1
  13              		.eabi_attribute 18, 4
  14              		.thumb
  15              		.syntax unified
  16              		.file	"POPE-app.c"
  17              		.text
  18              	.Ltext0:
  19              		.cfi_sections	.debug_frame
  20              		.section	.text.idleIntHandler,"ax",%progbits
  21              		.align	2
  22              		.global	idleIntHandler
  23              		.thumb
  24              		.thumb_func
  25              		.type	idleIntHandler, %function
  26              	idleIntHandler:
  27              	.LFB702:
  28              		.file 1 "POPE-app.c"
   1:POPE-app.c    **** /* ========================================
   2:POPE-app.c    ****  *
   3:POPE-app.c    ****  * Copyright YOUR COMPANY, THE YEAR
   4:POPE-app.c    ****  * All Rights Reserved
   5:POPE-app.c    ****  * UNPUBLISHED, LICENSED SOFTWARE.
   6:POPE-app.c    ****  *
   7:POPE-app.c    ****  * CONFIDENTIAL AND PROPRIETARY INFORMATION
   8:POPE-app.c    ****  * WHICH IS THE PROPERTY OF your company.
   9:POPE-app.c    ****  *
  10:POPE-app.c    ****  * ========================================
  11:POPE-app.c    **** */
  12:POPE-app.c    **** #include "POPE-app.h"
  13:POPE-app.c    **** 
  14:POPE-app.c    **** float* RPM;
  15:POPE-app.c    **** uint16 idleCounter = 0;
  16:POPE-app.c    **** 
  17:POPE-app.c    **** #if DEBUG_UART_ENABLED
  18:POPE-app.c    ****     char uart_string[50];   //UART debugging
  19:POPE-app.c    **** #endif
  20:POPE-app.c    **** 
  21:POPE-app.c    **** 
  22:POPE-app.c    **** void lowPowerMode()
  23:POPE-app.c    **** {
  24:POPE-app.c    ****     //
  25:POPE-app.c    **** }
  26:POPE-app.c    **** 
  27:POPE-app.c    **** 
  28:POPE-app.c    **** uint16_t getPower()
  29:POPE-app.c    **** {
ARM GAS  C:\Users\cring\AppData\Local\Temp\cc5WibDE.s 			page 2


  30:POPE-app.c    ****     uint16_t power = 0;
  31:POPE-app.c    ****     uint8_t crankLength = 175;  //mm
  32:POPE-app.c    ****     float* kadence = CS_getKadence();
  33:POPE-app.c    ****     uint16_t periode = (uint16_t)kadence[2];
  34:POPE-app.c    ****     uint16_t mass = getVaegt(periode);
  35:POPE-app.c    ****     
  36:POPE-app.c    ****     /* Udregninger */
  37:POPE-app.c    ****     uint16_t torque = mass * pow(crankLength*2*M_PI, 2) / pow(periode, 2);
  38:POPE-app.c    ****     uint16_t angVeloc = 2*M_PI / periode;
  39:POPE-app.c    ****     
  40:POPE-app.c    ****     //udregn power
  41:POPE-app.c    ****     power = torque * angVeloc;
  42:POPE-app.c    ****     return power;
  43:POPE-app.c    **** }
  44:POPE-app.c    **** 
  45:POPE-app.c    **** 
  46:POPE-app.c    **** bool testKadence()
  47:POPE-app.c    **** {
  48:POPE-app.c    ****     bool highCadence = false;
  49:POPE-app.c    ****     RPM = CS_getKadence();
  50:POPE-app.c    ****     if(RPM[0] > 12)   //200mHz
  51:POPE-app.c    ****     {
  52:POPE-app.c    ****         highCadence = true;
  53:POPE-app.c    ****     }
  54:POPE-app.c    ****     return highCadence;
  55:POPE-app.c    **** }
  56:POPE-app.c    **** 
  57:POPE-app.c    **** void startIdleCountdown()
  58:POPE-app.c    **** {
  59:POPE-app.c    ****     Cy_SysInt_Init(&idleInt_cfg, idleIntHandler);
  60:POPE-app.c    ****     idleTimer_Start();
  61:POPE-app.c    **** }
  62:POPE-app.c    **** 
  63:POPE-app.c    **** 
  64:POPE-app.c    **** void resetIdleCountdown()
  65:POPE-app.c    **** {
  66:POPE-app.c    ****     idleCounter = 0;
  67:POPE-app.c    ****     idleTimer_SetCounter(0);
  68:POPE-app.c    **** }
  69:POPE-app.c    **** 
  70:POPE-app.c    **** //interrupt
  71:POPE-app.c    **** void idleIntHandler()
  72:POPE-app.c    **** {
  29              		.loc 1 72 0
  30              		.cfi_startproc
  31              		@ args = 0, pretend = 0, frame = 0
  32              		@ frame_needed = 0, uses_anonymous_args = 0
  33 0000 10B5     		push	{r4, lr}
  34              		.cfi_def_cfa_offset 8
  35              		.cfi_offset 4, -8
  36              		.cfi_offset 14, -4
  73:POPE-app.c    ****     idleCounter++;
  37              		.loc 1 73 0
  38 0002 0E4B     		ldr	r3, .L4
  39 0004 1A88     		ldrh	r2, [r3]
  40 0006 0132     		adds	r2, r2, #1
  41 0008 92B2     		uxth	r2, r2
ARM GAS  C:\Users\cring\AppData\Local\Temp\cc5WibDE.s 			page 3


  42 000a 1A80     		strh	r2, [r3]	@ movhi
  74:POPE-app.c    ****     if(idleCounter == 300)
  43              		.loc 1 74 0
  44 000c B2F5967F 		cmp	r2, #300
  45 0010 08D1     		bne	.L2
  75:POPE-app.c    ****     {
  76:POPE-app.c    ****         #if DEBUG_UART_ENABLED
  77:POPE-app.c    ****             sprintf(uart_string, "CPU Deep Sleep: %i", idleCounter);
  46              		.loc 1 77 0
  47 0012 0B4C     		ldr	r4, .L4+4
  48 0014 0B49     		ldr	r1, .L4+8
  49 0016 2046     		mov	r0, r4
  50 0018 FFF7FEFF 		bl	sprintf
  51              	.LVL0:
  78:POPE-app.c    ****             UARTprint("9", uart_string);
  52              		.loc 1 78 0
  53 001c 2146     		mov	r1, r4
  54 001e 0A48     		ldr	r0, .L4+12
  55 0020 FFF7FEFF 		bl	UARTprint
  56              	.LVL1:
  57              	.L2:
  79:POPE-app.c    ****         #endif
  80:POPE-app.c    ****         //Cy_SysPm_DeepSleep(CY_SYSPM_WAIT_FOR_INTERRUPT);
  81:POPE-app.c    ****     }
  82:POPE-app.c    ****     #if DEBUG_UART_ENABLED
  83:POPE-app.c    ****         sprintf(uart_string, "idleCounter overflow: %i", idleCounter);
  58              		.loc 1 83 0
  59 0024 064C     		ldr	r4, .L4+4
  60 0026 054B     		ldr	r3, .L4
  61 0028 1A88     		ldrh	r2, [r3]
  62 002a 0849     		ldr	r1, .L4+16
  63 002c 2046     		mov	r0, r4
  64 002e FFF7FEFF 		bl	sprintf
  65              	.LVL2:
  84:POPE-app.c    ****         UARTprint("10", uart_string);
  66              		.loc 1 84 0
  67 0032 2146     		mov	r1, r4
  68 0034 0648     		ldr	r0, .L4+20
  69 0036 FFF7FEFF 		bl	UARTprint
  70              	.LVL3:
  71 003a 10BD     		pop	{r4, pc}
  72              	.L5:
  73              		.align	2
  74              	.L4:
  75 003c 00000000 		.word	.LANCHOR0
  76 0040 00000000 		.word	uart_string
  77 0044 00000000 		.word	.LC0
  78 0048 14000000 		.word	.LC1
  79 004c 18000000 		.word	.LC2
  80 0050 34000000 		.word	.LC3
  81              		.cfi_endproc
  82              	.LFE702:
  83              		.size	idleIntHandler, .-idleIntHandler
  84              		.section	.text.lowPowerMode,"ax",%progbits
  85              		.align	2
  86              		.global	lowPowerMode
  87              		.thumb
ARM GAS  C:\Users\cring\AppData\Local\Temp\cc5WibDE.s 			page 4


  88              		.thumb_func
  89              		.type	lowPowerMode, %function
  90              	lowPowerMode:
  91              	.LFB697:
  23:POPE-app.c    ****     //
  92              		.loc 1 23 0
  93              		.cfi_startproc
  94              		@ args = 0, pretend = 0, frame = 0
  95              		@ frame_needed = 0, uses_anonymous_args = 0
  96              		@ link register save eliminated.
  97 0000 7047     		bx	lr
  98              		.cfi_endproc
  99              	.LFE697:
 100              		.size	lowPowerMode, .-lowPowerMode
 101              		.global	__aeabi_i2d
 102              		.global	__aeabi_dmul
 103              		.global	__aeabi_ui2d
 104              		.global	__aeabi_ddiv
 105              		.global	__aeabi_d2uiz
 106 0002 00BF     		.section	.text.getPower,"ax",%progbits
 107              		.align	2
 108              		.global	getPower
 109              		.thumb
 110              		.thumb_func
 111              		.type	getPower, %function
 112              	getPower:
 113              	.LFB698:
  29:POPE-app.c    ****     uint16_t power = 0;
 114              		.loc 1 29 0
 115              		.cfi_startproc
 116              		@ args = 0, pretend = 0, frame = 8
 117              		@ frame_needed = 0, uses_anonymous_args = 0
  29:POPE-app.c    ****     uint16_t power = 0;
 118              		.loc 1 29 0
 119 0000 F0B5     		push	{r4, r5, r6, r7, lr}
 120              		.cfi_def_cfa_offset 20
 121              		.cfi_offset 4, -20
 122              		.cfi_offset 5, -16
 123              		.cfi_offset 6, -12
 124              		.cfi_offset 7, -8
 125              		.cfi_offset 14, -4
 126 0002 83B0     		sub	sp, sp, #12
 127              		.cfi_def_cfa_offset 32
 128              	.LVL4:
  32:POPE-app.c    ****     uint16_t periode = (uint16_t)kadence[2];
 129              		.loc 1 32 0
 130 0004 FFF7FEFF 		bl	CS_getKadence
 131              	.LVL5:
  33:POPE-app.c    ****     uint16_t mass = getVaegt(periode);
 132              		.loc 1 33 0
 133 0008 D0ED027A 		vldr.32	s15, [r0, #8]
 134 000c FCEEE77A 		vcvt.u32.f32	s15, s15
 135 0010 CDED017A 		vstr.32	s15, [sp, #4]	@ int
 136 0014 BDF80440 		ldrh	r4, [sp, #4]
 137              	.LVL6:
  34:POPE-app.c    ****     
 138              		.loc 1 34 0
ARM GAS  C:\Users\cring\AppData\Local\Temp\cc5WibDE.s 			page 5


 139 0018 2046     		mov	r0, r4
 140              	.LVL7:
 141 001a FFF7FEFF 		bl	getVaegt
 142              	.LVL8:
  37:POPE-app.c    ****     uint16_t angVeloc = 2*M_PI / periode;
 143              		.loc 1 37 0
 144 001e 80B2     		uxth	r0, r0
 145 0020 FFF7FEFF 		bl	__aeabi_i2d
 146              	.LVL9:
 147 0024 14A3     		adr	r3, .L9
 148 0026 D3E90023 		ldrd	r2, [r3]
 149 002a FFF7FEFF 		bl	__aeabi_dmul
 150              	.LVL10:
 151 002e 0646     		mov	r6, r0
 152 0030 0F46     		mov	r7, r1
 153 0032 2046     		mov	r0, r4
 154 0034 FFF7FEFF 		bl	__aeabi_ui2d
 155              	.LVL11:
 156 0038 0022     		movs	r2, #0
 157 003a 4FF08043 		mov	r3, #1073741824
 158 003e FFF7FEFF 		bl	pow
 159              	.LVL12:
 160 0042 0246     		mov	r2, r0
 161 0044 0B46     		mov	r3, r1
 162 0046 3046     		mov	r0, r6
 163 0048 3946     		mov	r1, r7
 164 004a FFF7FEFF 		bl	__aeabi_ddiv
 165              	.LVL13:
 166 004e FFF7FEFF 		bl	__aeabi_d2uiz
 167              	.LVL14:
 168 0052 85B2     		uxth	r5, r0
 169              	.LVL15:
  38:POPE-app.c    ****     
 170              		.loc 1 38 0
 171 0054 2046     		mov	r0, r4
 172 0056 FFF7FEFF 		bl	__aeabi_i2d
 173              	.LVL16:
 174 005a 0246     		mov	r2, r0
 175 005c 0B46     		mov	r3, r1
 176 005e 08A1     		adr	r1, .L9+8
 177 0060 D1E90001 		ldrd	r0, [r1]
 178 0064 FFF7FEFF 		bl	__aeabi_ddiv
 179              	.LVL17:
 180 0068 FFF7FEFF 		bl	__aeabi_d2uiz
 181              	.LVL18:
  41:POPE-app.c    ****     return power;
 182              		.loc 1 41 0
 183 006c 15FB00F0 		smulbb	r0, r5, r0
 184              	.LVL19:
  43:POPE-app.c    **** 
 185              		.loc 1 43 0
 186 0070 80B2     		uxth	r0, r0
 187 0072 03B0     		add	sp, sp, #12
 188              		.cfi_def_cfa_offset 20
 189              		@ sp needed
 190 0074 F0BD     		pop	{r4, r5, r6, r7, pc}
 191              	.LVL20:
ARM GAS  C:\Users\cring\AppData\Local\Temp\cc5WibDE.s 			page 6


 192              	.L10:
 193 0076 00BF     		.align	3
 194              	.L9:
 195 0078 47A6048A 		.word	-1979406777
 196 007c C2723241 		.word	1093825218
 197 0080 182D4454 		.word	1413754136
 198 0084 FB211940 		.word	1075388923
 199              		.cfi_endproc
 200              	.LFE698:
 201              		.size	getPower, .-getPower
 202              		.section	.text.testKadence,"ax",%progbits
 203              		.align	2
 204              		.global	testKadence
 205              		.thumb
 206              		.thumb_func
 207              		.type	testKadence, %function
 208              	testKadence:
 209              	.LFB699:
  47:POPE-app.c    ****     bool highCadence = false;
 210              		.loc 1 47 0
 211              		.cfi_startproc
 212              		@ args = 0, pretend = 0, frame = 0
 213              		@ frame_needed = 0, uses_anonymous_args = 0
 214 0000 08B5     		push	{r3, lr}
 215              		.cfi_def_cfa_offset 8
 216              		.cfi_offset 3, -8
 217              		.cfi_offset 14, -4
 218              	.LVL21:
  49:POPE-app.c    ****     if(RPM[0] > 12)   //200mHz
 219              		.loc 1 49 0
 220 0002 FFF7FEFF 		bl	CS_getKadence
 221              	.LVL22:
 222 0006 074B     		ldr	r3, .L15
 223 0008 1860     		str	r0, [r3]
  50:POPE-app.c    ****     {
 224              		.loc 1 50 0
 225 000a 90ED007A 		vldr.32	s14, [r0]
 226 000e F2EE087A 		vmov.f32	s15, #1.2e+1
 227 0012 B4EEE77A 		vcmpe.f32	s14, s15
 228 0016 F1EE10FA 		vmrs	APSR_nzcv, FPSCR
 229 001a 01DC     		bgt	.L13
  48:POPE-app.c    ****     RPM = CS_getKadence();
 230              		.loc 1 48 0
 231 001c 0020     		movs	r0, #0
 232 001e 08BD     		pop	{r3, pc}
 233              	.L13:
  52:POPE-app.c    ****     }
 234              		.loc 1 52 0
 235 0020 0120     		movs	r0, #1
 236              	.LVL23:
  55:POPE-app.c    **** 
 237              		.loc 1 55 0
 238 0022 08BD     		pop	{r3, pc}
 239              	.L16:
 240              		.align	2
 241              	.L15:
 242 0024 00000000 		.word	RPM
ARM GAS  C:\Users\cring\AppData\Local\Temp\cc5WibDE.s 			page 7


 243              		.cfi_endproc
 244              	.LFE699:
 245              		.size	testKadence, .-testKadence
 246              		.section	.text.startIdleCountdown,"ax",%progbits
 247              		.align	2
 248              		.global	startIdleCountdown
 249              		.thumb
 250              		.thumb_func
 251              		.type	startIdleCountdown, %function
 252              	startIdleCountdown:
 253              	.LFB700:
  58:POPE-app.c    ****     Cy_SysInt_Init(&idleInt_cfg, idleIntHandler);
 254              		.loc 1 58 0
 255              		.cfi_startproc
 256              		@ args = 0, pretend = 0, frame = 0
 257              		@ frame_needed = 0, uses_anonymous_args = 0
 258 0000 08B5     		push	{r3, lr}
 259              		.cfi_def_cfa_offset 8
 260              		.cfi_offset 3, -8
 261              		.cfi_offset 14, -4
  59:POPE-app.c    ****     idleTimer_Start();
 262              		.loc 1 59 0
 263 0002 0349     		ldr	r1, .L19
 264 0004 0348     		ldr	r0, .L19+4
 265 0006 FFF7FEFF 		bl	Cy_SysInt_Init
 266              	.LVL24:
  60:POPE-app.c    **** }
 267              		.loc 1 60 0
 268 000a FFF7FEFF 		bl	idleTimer_Start
 269              	.LVL25:
 270 000e 08BD     		pop	{r3, pc}
 271              	.L20:
 272              		.align	2
 273              	.L19:
 274 0010 00000000 		.word	idleIntHandler
 275 0014 00000000 		.word	idleInt_cfg
 276              		.cfi_endproc
 277              	.LFE700:
 278              		.size	startIdleCountdown, .-startIdleCountdown
 279              		.section	.text.resetIdleCountdown,"ax",%progbits
 280              		.align	2
 281              		.global	resetIdleCountdown
 282              		.thumb
 283              		.thumb_func
 284              		.type	resetIdleCountdown, %function
 285              	resetIdleCountdown:
 286              	.LFB701:
  65:POPE-app.c    ****     idleCounter = 0;
 287              		.loc 1 65 0
 288              		.cfi_startproc
 289              		@ args = 0, pretend = 0, frame = 0
 290              		@ frame_needed = 0, uses_anonymous_args = 0
 291              		@ link register save eliminated.
  66:POPE-app.c    ****     idleTimer_SetCounter(0);
 292              		.loc 1 66 0
 293 0000 0023     		movs	r3, #0
 294 0002 034A     		ldr	r2, .L22
ARM GAS  C:\Users\cring\AppData\Local\Temp\cc5WibDE.s 			page 8


 295 0004 1380     		strh	r3, [r2]	@ movhi
 296              	.LVL26:
 297              	.LBB8:
 298              	.LBB9:
 299              	.LBB10:
 300              		.file 2 "Generated_Source\\PSoC6\\pdl\\drivers/peripheral/tcpwm/cy_tcpwm_counter.h"
   1:Generated_Source\PSoC6\pdl\drivers/peripheral/tcpwm/cy_tcpwm_counter.h **** /***************************************************************************//**
   2:Generated_Source\PSoC6\pdl\drivers/peripheral/tcpwm/cy_tcpwm_counter.h **** * \file cy_tcpwm_counter.h
   3:Generated_Source\PSoC6\pdl\drivers/peripheral/tcpwm/cy_tcpwm_counter.h **** * \version 1.10
   4:Generated_Source\PSoC6\pdl\drivers/peripheral/tcpwm/cy_tcpwm_counter.h **** *
   5:Generated_Source\PSoC6\pdl\drivers/peripheral/tcpwm/cy_tcpwm_counter.h **** * \brief
   6:Generated_Source\PSoC6\pdl\drivers/peripheral/tcpwm/cy_tcpwm_counter.h **** * The header file of the TCPWM Timer Counter driver.
   7:Generated_Source\PSoC6\pdl\drivers/peripheral/tcpwm/cy_tcpwm_counter.h **** *
   8:Generated_Source\PSoC6\pdl\drivers/peripheral/tcpwm/cy_tcpwm_counter.h **** ********************************************************************************
   9:Generated_Source\PSoC6\pdl\drivers/peripheral/tcpwm/cy_tcpwm_counter.h **** * \copyright
  10:Generated_Source\PSoC6\pdl\drivers/peripheral/tcpwm/cy_tcpwm_counter.h **** * Copyright 2016-2018, Cypress Semiconductor Corporation. All rights reserved.
  11:Generated_Source\PSoC6\pdl\drivers/peripheral/tcpwm/cy_tcpwm_counter.h **** * You may use this file only in accordance with the license, terms, conditions,
  12:Generated_Source\PSoC6\pdl\drivers/peripheral/tcpwm/cy_tcpwm_counter.h **** * disclaimers, and limitations in the end user license agreement accompanying
  13:Generated_Source\PSoC6\pdl\drivers/peripheral/tcpwm/cy_tcpwm_counter.h **** * the software package with which this file was provided.
  14:Generated_Source\PSoC6\pdl\drivers/peripheral/tcpwm/cy_tcpwm_counter.h **** *******************************************************************************/
  15:Generated_Source\PSoC6\pdl\drivers/peripheral/tcpwm/cy_tcpwm_counter.h **** 
  16:Generated_Source\PSoC6\pdl\drivers/peripheral/tcpwm/cy_tcpwm_counter.h **** #if !defined(CY_TCPWM_COUNTER_H)
  17:Generated_Source\PSoC6\pdl\drivers/peripheral/tcpwm/cy_tcpwm_counter.h **** #define CY_TCPWM_COUNTER_H
  18:Generated_Source\PSoC6\pdl\drivers/peripheral/tcpwm/cy_tcpwm_counter.h **** 
  19:Generated_Source\PSoC6\pdl\drivers/peripheral/tcpwm/cy_tcpwm_counter.h **** #include "cy_tcpwm.h"
  20:Generated_Source\PSoC6\pdl\drivers/peripheral/tcpwm/cy_tcpwm_counter.h **** 
  21:Generated_Source\PSoC6\pdl\drivers/peripheral/tcpwm/cy_tcpwm_counter.h **** #if defined(__cplusplus)
  22:Generated_Source\PSoC6\pdl\drivers/peripheral/tcpwm/cy_tcpwm_counter.h **** extern "C" {
  23:Generated_Source\PSoC6\pdl\drivers/peripheral/tcpwm/cy_tcpwm_counter.h **** #endif
  24:Generated_Source\PSoC6\pdl\drivers/peripheral/tcpwm/cy_tcpwm_counter.h **** 
  25:Generated_Source\PSoC6\pdl\drivers/peripheral/tcpwm/cy_tcpwm_counter.h **** /**
  26:Generated_Source\PSoC6\pdl\drivers/peripheral/tcpwm/cy_tcpwm_counter.h **** * \addtogroup group_tcpwm_counter
  27:Generated_Source\PSoC6\pdl\drivers/peripheral/tcpwm/cy_tcpwm_counter.h **** * \{
  28:Generated_Source\PSoC6\pdl\drivers/peripheral/tcpwm/cy_tcpwm_counter.h **** * Driver API for Timer/Counter.
  29:Generated_Source\PSoC6\pdl\drivers/peripheral/tcpwm/cy_tcpwm_counter.h **** * 
  30:Generated_Source\PSoC6\pdl\drivers/peripheral/tcpwm/cy_tcpwm_counter.h **** * The functions and other declarations used in this part of the driver are 
  31:Generated_Source\PSoC6\pdl\drivers/peripheral/tcpwm/cy_tcpwm_counter.h **** * in cy_tcpwm_counter.h. You can also include cy_pdl.h (ModusToolbox only) 
  32:Generated_Source\PSoC6\pdl\drivers/peripheral/tcpwm/cy_tcpwm_counter.h **** * to get access to all functions and declarations in the PDL.
  33:Generated_Source\PSoC6\pdl\drivers/peripheral/tcpwm/cy_tcpwm_counter.h **** */
  34:Generated_Source\PSoC6\pdl\drivers/peripheral/tcpwm/cy_tcpwm_counter.h **** 
  35:Generated_Source\PSoC6\pdl\drivers/peripheral/tcpwm/cy_tcpwm_counter.h **** /**
  36:Generated_Source\PSoC6\pdl\drivers/peripheral/tcpwm/cy_tcpwm_counter.h **** * \defgroup group_tcpwm_macros_counter          Macros
  37:Generated_Source\PSoC6\pdl\drivers/peripheral/tcpwm/cy_tcpwm_counter.h **** * \defgroup group_tcpwm_functions_counter       Functions
  38:Generated_Source\PSoC6\pdl\drivers/peripheral/tcpwm/cy_tcpwm_counter.h **** * \defgroup group_tcpwm_data_structures_counter Data Structures
  39:Generated_Source\PSoC6\pdl\drivers/peripheral/tcpwm/cy_tcpwm_counter.h **** * \} */
  40:Generated_Source\PSoC6\pdl\drivers/peripheral/tcpwm/cy_tcpwm_counter.h **** 
  41:Generated_Source\PSoC6\pdl\drivers/peripheral/tcpwm/cy_tcpwm_counter.h **** /**
  42:Generated_Source\PSoC6\pdl\drivers/peripheral/tcpwm/cy_tcpwm_counter.h **** * \addtogroup group_tcpwm_data_structures_counter
  43:Generated_Source\PSoC6\pdl\drivers/peripheral/tcpwm/cy_tcpwm_counter.h **** * \{
  44:Generated_Source\PSoC6\pdl\drivers/peripheral/tcpwm/cy_tcpwm_counter.h **** */
  45:Generated_Source\PSoC6\pdl\drivers/peripheral/tcpwm/cy_tcpwm_counter.h **** 
  46:Generated_Source\PSoC6\pdl\drivers/peripheral/tcpwm/cy_tcpwm_counter.h **** /** Counter Timer configuration structure */
  47:Generated_Source\PSoC6\pdl\drivers/peripheral/tcpwm/cy_tcpwm_counter.h **** typedef struct cy_stc_tcpwm_counter_config
  48:Generated_Source\PSoC6\pdl\drivers/peripheral/tcpwm/cy_tcpwm_counter.h **** {
  49:Generated_Source\PSoC6\pdl\drivers/peripheral/tcpwm/cy_tcpwm_counter.h ****     uint32_t    period;             /**< Sets the period of the counter */
  50:Generated_Source\PSoC6\pdl\drivers/peripheral/tcpwm/cy_tcpwm_counter.h ****     /** Sets the clock prescaler inside the TCWPM block. See \ref group_tcpwm_counter_clk_prescaler
  51:Generated_Source\PSoC6\pdl\drivers/peripheral/tcpwm/cy_tcpwm_counter.h ****     uint32_t    clockPrescaler;     
ARM GAS  C:\Users\cring\AppData\Local\Temp\cc5WibDE.s 			page 9


  52:Generated_Source\PSoC6\pdl\drivers/peripheral/tcpwm/cy_tcpwm_counter.h ****     uint32_t    runMode;            /**< Sets the run mode. See \ref group_tcpwm_counter_run_modes 
  53:Generated_Source\PSoC6\pdl\drivers/peripheral/tcpwm/cy_tcpwm_counter.h ****     uint32_t    countDirection;     /**< Sets the counter direction. See \ref group_tcpwm_counter_d
  54:Generated_Source\PSoC6\pdl\drivers/peripheral/tcpwm/cy_tcpwm_counter.h ****     /** The counter can either compare or capture a value. See \ref group_tcpwm_counter_compare_cap
  55:Generated_Source\PSoC6\pdl\drivers/peripheral/tcpwm/cy_tcpwm_counter.h ****     uint32_t    compareOrCapture;   
  56:Generated_Source\PSoC6\pdl\drivers/peripheral/tcpwm/cy_tcpwm_counter.h ****     uint32_t    compare0;           /**< Sets the value for Compare0*/
  57:Generated_Source\PSoC6\pdl\drivers/peripheral/tcpwm/cy_tcpwm_counter.h ****     uint32_t    compare1;           /**< Sets the value for Compare1*/
  58:Generated_Source\PSoC6\pdl\drivers/peripheral/tcpwm/cy_tcpwm_counter.h ****     bool        enableCompareSwap;  /**< If enabled, the compare values are swapped each time the c
  59:Generated_Source\PSoC6\pdl\drivers/peripheral/tcpwm/cy_tcpwm_counter.h ****     /** Enabled an interrupt on the terminal count, capture or compare. See \ref group_tcpwm_interr
  60:Generated_Source\PSoC6\pdl\drivers/peripheral/tcpwm/cy_tcpwm_counter.h ****     uint32_t    interruptSources;
  61:Generated_Source\PSoC6\pdl\drivers/peripheral/tcpwm/cy_tcpwm_counter.h ****     uint32_t    captureInputMode;   /**< Configures how the capture input behaves. See \ref group_t
  62:Generated_Source\PSoC6\pdl\drivers/peripheral/tcpwm/cy_tcpwm_counter.h ****     /** Selects which input the capture uses, the inputs are device-specific. See \ref group_tcpwm_
  63:Generated_Source\PSoC6\pdl\drivers/peripheral/tcpwm/cy_tcpwm_counter.h ****     uint32_t    captureInput;
  64:Generated_Source\PSoC6\pdl\drivers/peripheral/tcpwm/cy_tcpwm_counter.h ****     uint32_t    reloadInputMode;    /**< Configures how the reload input behaves. See \ref group_tc
  65:Generated_Source\PSoC6\pdl\drivers/peripheral/tcpwm/cy_tcpwm_counter.h ****     /** Selects which input the reload uses, the inputs are device-specific. See \ref group_tcpwm_i
  66:Generated_Source\PSoC6\pdl\drivers/peripheral/tcpwm/cy_tcpwm_counter.h ****     uint32_t    reloadInput;
  67:Generated_Source\PSoC6\pdl\drivers/peripheral/tcpwm/cy_tcpwm_counter.h ****     uint32_t    startInputMode;     /**< Configures how the start input behaves. See \ref group_tcp
  68:Generated_Source\PSoC6\pdl\drivers/peripheral/tcpwm/cy_tcpwm_counter.h ****     /** Selects which input the start uses, the inputs are device-specific. See \ref group_tcpwm_in
  69:Generated_Source\PSoC6\pdl\drivers/peripheral/tcpwm/cy_tcpwm_counter.h ****     uint32_t    startInput;
  70:Generated_Source\PSoC6\pdl\drivers/peripheral/tcpwm/cy_tcpwm_counter.h ****     uint32_t    stopInputMode;      /**< Configures how the stop input behaves. See \ref group_tcpw
  71:Generated_Source\PSoC6\pdl\drivers/peripheral/tcpwm/cy_tcpwm_counter.h ****     /** Selects which input the stop uses, the inputs are device-specific. See \ref group_tcpwm_inp
  72:Generated_Source\PSoC6\pdl\drivers/peripheral/tcpwm/cy_tcpwm_counter.h ****     uint32_t    stopInput;
  73:Generated_Source\PSoC6\pdl\drivers/peripheral/tcpwm/cy_tcpwm_counter.h ****     uint32_t    countInputMode;     /**< Configures how the count input behaves. See \ref group_tcp
  74:Generated_Source\PSoC6\pdl\drivers/peripheral/tcpwm/cy_tcpwm_counter.h ****     /** Selects which input the count uses, the inputs are device-specific. See \ref group_tcpwm_in
  75:Generated_Source\PSoC6\pdl\drivers/peripheral/tcpwm/cy_tcpwm_counter.h ****     uint32_t    countInput;
  76:Generated_Source\PSoC6\pdl\drivers/peripheral/tcpwm/cy_tcpwm_counter.h **** }cy_stc_tcpwm_counter_config_t;
  77:Generated_Source\PSoC6\pdl\drivers/peripheral/tcpwm/cy_tcpwm_counter.h **** /** \} group_tcpwm_data_structures_counter */
  78:Generated_Source\PSoC6\pdl\drivers/peripheral/tcpwm/cy_tcpwm_counter.h **** 
  79:Generated_Source\PSoC6\pdl\drivers/peripheral/tcpwm/cy_tcpwm_counter.h **** /**
  80:Generated_Source\PSoC6\pdl\drivers/peripheral/tcpwm/cy_tcpwm_counter.h **** * \addtogroup group_tcpwm_macros_counter
  81:Generated_Source\PSoC6\pdl\drivers/peripheral/tcpwm/cy_tcpwm_counter.h **** * \{
  82:Generated_Source\PSoC6\pdl\drivers/peripheral/tcpwm/cy_tcpwm_counter.h **** * \defgroup group_tcpwm_counter_run_modes Counter Run Modes
  83:Generated_Source\PSoC6\pdl\drivers/peripheral/tcpwm/cy_tcpwm_counter.h **** * \{
  84:Generated_Source\PSoC6\pdl\drivers/peripheral/tcpwm/cy_tcpwm_counter.h **** * Run modes for the counter timer.
  85:Generated_Source\PSoC6\pdl\drivers/peripheral/tcpwm/cy_tcpwm_counter.h **** */
  86:Generated_Source\PSoC6\pdl\drivers/peripheral/tcpwm/cy_tcpwm_counter.h **** #define CY_TCPWM_COUNTER_ONESHOT                (1U)    /**< Counter runs once and then stops */
  87:Generated_Source\PSoC6\pdl\drivers/peripheral/tcpwm/cy_tcpwm_counter.h **** #define CY_TCPWM_COUNTER_CONTINUOUS             (0U)    /**< Counter runs forever */
  88:Generated_Source\PSoC6\pdl\drivers/peripheral/tcpwm/cy_tcpwm_counter.h **** /** \} group_tcpwm_counter_run_modes */
  89:Generated_Source\PSoC6\pdl\drivers/peripheral/tcpwm/cy_tcpwm_counter.h **** 
  90:Generated_Source\PSoC6\pdl\drivers/peripheral/tcpwm/cy_tcpwm_counter.h **** /** \defgroup group_tcpwm_counter_direction Counter Direction
  91:Generated_Source\PSoC6\pdl\drivers/peripheral/tcpwm/cy_tcpwm_counter.h **** * The counter directions.
  92:Generated_Source\PSoC6\pdl\drivers/peripheral/tcpwm/cy_tcpwm_counter.h **** * \{
  93:Generated_Source\PSoC6\pdl\drivers/peripheral/tcpwm/cy_tcpwm_counter.h **** */
  94:Generated_Source\PSoC6\pdl\drivers/peripheral/tcpwm/cy_tcpwm_counter.h **** #define CY_TCPWM_COUNTER_COUNT_UP               (0U)    /**< Counter counts up */
  95:Generated_Source\PSoC6\pdl\drivers/peripheral/tcpwm/cy_tcpwm_counter.h **** #define CY_TCPWM_COUNTER_COUNT_DOWN             (1U)    /**< Counter counts down */
  96:Generated_Source\PSoC6\pdl\drivers/peripheral/tcpwm/cy_tcpwm_counter.h **** /** Counter counts up and down terminal count only occurs on underflow. */
  97:Generated_Source\PSoC6\pdl\drivers/peripheral/tcpwm/cy_tcpwm_counter.h **** #define CY_TCPWM_COUNTER_COUNT_UP_DOWN_1        (2U)
  98:Generated_Source\PSoC6\pdl\drivers/peripheral/tcpwm/cy_tcpwm_counter.h **** /** Counter counts up and down terminal count occurs on both overflow and underflow. */
  99:Generated_Source\PSoC6\pdl\drivers/peripheral/tcpwm/cy_tcpwm_counter.h **** #define CY_TCPWM_COUNTER_COUNT_UP_DOWN_2        (3U)
 100:Generated_Source\PSoC6\pdl\drivers/peripheral/tcpwm/cy_tcpwm_counter.h **** /** \} group_tcpwm_counter_direction */
 101:Generated_Source\PSoC6\pdl\drivers/peripheral/tcpwm/cy_tcpwm_counter.h **** 
 102:Generated_Source\PSoC6\pdl\drivers/peripheral/tcpwm/cy_tcpwm_counter.h **** /** \defgroup group_tcpwm_counter_clk_prescalers Counter CLK Prescalers
 103:Generated_Source\PSoC6\pdl\drivers/peripheral/tcpwm/cy_tcpwm_counter.h **** * \{
 104:Generated_Source\PSoC6\pdl\drivers/peripheral/tcpwm/cy_tcpwm_counter.h **** * The clock prescaler values.
 105:Generated_Source\PSoC6\pdl\drivers/peripheral/tcpwm/cy_tcpwm_counter.h **** */
 106:Generated_Source\PSoC6\pdl\drivers/peripheral/tcpwm/cy_tcpwm_counter.h **** #define CY_TCPWM_COUNTER_PRESCALER_DIVBY_1      (0U) /**< Divide by 1 */
 107:Generated_Source\PSoC6\pdl\drivers/peripheral/tcpwm/cy_tcpwm_counter.h **** #define CY_TCPWM_COUNTER_PRESCALER_DIVBY_2      (1U) /**< Divide by 2 */
 108:Generated_Source\PSoC6\pdl\drivers/peripheral/tcpwm/cy_tcpwm_counter.h **** #define CY_TCPWM_COUNTER_PRESCALER_DIVBY_4      (2U) /**< Divide by 4 */
ARM GAS  C:\Users\cring\AppData\Local\Temp\cc5WibDE.s 			page 10


 109:Generated_Source\PSoC6\pdl\drivers/peripheral/tcpwm/cy_tcpwm_counter.h **** #define CY_TCPWM_COUNTER_PRESCALER_DIVBY_8      (3U) /**< Divide by 8 */
 110:Generated_Source\PSoC6\pdl\drivers/peripheral/tcpwm/cy_tcpwm_counter.h **** #define CY_TCPWM_COUNTER_PRESCALER_DIVBY_16     (4U) /**< Divide by 16 */
 111:Generated_Source\PSoC6\pdl\drivers/peripheral/tcpwm/cy_tcpwm_counter.h **** #define CY_TCPWM_COUNTER_PRESCALER_DIVBY_32     (5U) /**< Divide by 32 */
 112:Generated_Source\PSoC6\pdl\drivers/peripheral/tcpwm/cy_tcpwm_counter.h **** #define CY_TCPWM_COUNTER_PRESCALER_DIVBY_64     (6U) /**< Divide by 64 */
 113:Generated_Source\PSoC6\pdl\drivers/peripheral/tcpwm/cy_tcpwm_counter.h **** #define CY_TCPWM_COUNTER_PRESCALER_DIVBY_128    (7U) /**< Divide by 128 */
 114:Generated_Source\PSoC6\pdl\drivers/peripheral/tcpwm/cy_tcpwm_counter.h **** /** \} group_tcpwm_counter_clk_prescalers */
 115:Generated_Source\PSoC6\pdl\drivers/peripheral/tcpwm/cy_tcpwm_counter.h **** 
 116:Generated_Source\PSoC6\pdl\drivers/peripheral/tcpwm/cy_tcpwm_counter.h **** /** \defgroup group_tcpwm_counter_compare_capture Counter Compare Capture
 117:Generated_Source\PSoC6\pdl\drivers/peripheral/tcpwm/cy_tcpwm_counter.h **** * \{
 118:Generated_Source\PSoC6\pdl\drivers/peripheral/tcpwm/cy_tcpwm_counter.h **** * A compare or capture mode.
 119:Generated_Source\PSoC6\pdl\drivers/peripheral/tcpwm/cy_tcpwm_counter.h **** */
 120:Generated_Source\PSoC6\pdl\drivers/peripheral/tcpwm/cy_tcpwm_counter.h **** #define CY_TCPWM_COUNTER_MODE_CAPTURE           (2U)  /**< Timer/Counter is in Capture Mode */
 121:Generated_Source\PSoC6\pdl\drivers/peripheral/tcpwm/cy_tcpwm_counter.h **** #define CY_TCPWM_COUNTER_MODE_COMPARE           (0U)  /**< Timer/Counter is in Compare Mode */
 122:Generated_Source\PSoC6\pdl\drivers/peripheral/tcpwm/cy_tcpwm_counter.h **** /** \} group_tcpwm_counter_compare_capture */
 123:Generated_Source\PSoC6\pdl\drivers/peripheral/tcpwm/cy_tcpwm_counter.h **** 
 124:Generated_Source\PSoC6\pdl\drivers/peripheral/tcpwm/cy_tcpwm_counter.h **** /** \defgroup group_tcpwm_counter_status Counter Status
 125:Generated_Source\PSoC6\pdl\drivers/peripheral/tcpwm/cy_tcpwm_counter.h **** * \{
 126:Generated_Source\PSoC6\pdl\drivers/peripheral/tcpwm/cy_tcpwm_counter.h **** * The counter status.
 127:Generated_Source\PSoC6\pdl\drivers/peripheral/tcpwm/cy_tcpwm_counter.h **** */
 128:Generated_Source\PSoC6\pdl\drivers/peripheral/tcpwm/cy_tcpwm_counter.h **** #define CY_TCPWM_COUNTER_STATUS_DOWN_COUNTING   (0x1UL)        /**< Timer/Counter is down counting 
 129:Generated_Source\PSoC6\pdl\drivers/peripheral/tcpwm/cy_tcpwm_counter.h **** #define CY_TCPWM_COUNTER_STATUS_UP_COUNTING     (0x2UL)        /**< Timer/Counter is up counting */
 130:Generated_Source\PSoC6\pdl\drivers/peripheral/tcpwm/cy_tcpwm_counter.h **** 
 131:Generated_Source\PSoC6\pdl\drivers/peripheral/tcpwm/cy_tcpwm_counter.h **** /** Timer/Counter is running */
 132:Generated_Source\PSoC6\pdl\drivers/peripheral/tcpwm/cy_tcpwm_counter.h **** #define CY_TCPWM_COUNTER_STATUS_COUNTER_RUNNING (TCPWM_CNT_STATUS_RUNNING_Msk)
 133:Generated_Source\PSoC6\pdl\drivers/peripheral/tcpwm/cy_tcpwm_counter.h **** /** \} group_tcpwm_counter_status */
 134:Generated_Source\PSoC6\pdl\drivers/peripheral/tcpwm/cy_tcpwm_counter.h **** /** \} group_tcpwm_macros_counter */
 135:Generated_Source\PSoC6\pdl\drivers/peripheral/tcpwm/cy_tcpwm_counter.h **** 
 136:Generated_Source\PSoC6\pdl\drivers/peripheral/tcpwm/cy_tcpwm_counter.h **** 
 137:Generated_Source\PSoC6\pdl\drivers/peripheral/tcpwm/cy_tcpwm_counter.h **** /*******************************************************************************
 138:Generated_Source\PSoC6\pdl\drivers/peripheral/tcpwm/cy_tcpwm_counter.h **** *        Function Prototypes
 139:Generated_Source\PSoC6\pdl\drivers/peripheral/tcpwm/cy_tcpwm_counter.h **** *******************************************************************************/
 140:Generated_Source\PSoC6\pdl\drivers/peripheral/tcpwm/cy_tcpwm_counter.h **** 
 141:Generated_Source\PSoC6\pdl\drivers/peripheral/tcpwm/cy_tcpwm_counter.h **** /**
 142:Generated_Source\PSoC6\pdl\drivers/peripheral/tcpwm/cy_tcpwm_counter.h **** * \addtogroup group_tcpwm_functions_counter
 143:Generated_Source\PSoC6\pdl\drivers/peripheral/tcpwm/cy_tcpwm_counter.h **** * \{
 144:Generated_Source\PSoC6\pdl\drivers/peripheral/tcpwm/cy_tcpwm_counter.h **** */
 145:Generated_Source\PSoC6\pdl\drivers/peripheral/tcpwm/cy_tcpwm_counter.h **** cy_en_tcpwm_status_t Cy_TCPWM_Counter_Init(TCPWM_Type *base, uint32_t cntNum, 
 146:Generated_Source\PSoC6\pdl\drivers/peripheral/tcpwm/cy_tcpwm_counter.h ****                                            cy_stc_tcpwm_counter_config_t const *config);
 147:Generated_Source\PSoC6\pdl\drivers/peripheral/tcpwm/cy_tcpwm_counter.h **** void Cy_TCPWM_Counter_DeInit(TCPWM_Type *base, uint32_t cntNum, cy_stc_tcpwm_counter_config_t const
 148:Generated_Source\PSoC6\pdl\drivers/peripheral/tcpwm/cy_tcpwm_counter.h **** __STATIC_INLINE void Cy_TCPWM_Counter_Enable(TCPWM_Type *base, uint32_t cntNum);
 149:Generated_Source\PSoC6\pdl\drivers/peripheral/tcpwm/cy_tcpwm_counter.h **** __STATIC_INLINE void Cy_TCPWM_Counter_Disable(TCPWM_Type *base, uint32_t cntNum);
 150:Generated_Source\PSoC6\pdl\drivers/peripheral/tcpwm/cy_tcpwm_counter.h **** __STATIC_INLINE uint32_t Cy_TCPWM_Counter_GetStatus(TCPWM_Type const *base, uint32_t cntNum);
 151:Generated_Source\PSoC6\pdl\drivers/peripheral/tcpwm/cy_tcpwm_counter.h **** __STATIC_INLINE uint32_t Cy_TCPWM_Counter_GetCapture(TCPWM_Type const *base, uint32_t cntNum);
 152:Generated_Source\PSoC6\pdl\drivers/peripheral/tcpwm/cy_tcpwm_counter.h **** __STATIC_INLINE uint32_t Cy_TCPWM_Counter_GetCaptureBuf(TCPWM_Type const *base, uint32_t cntNum);
 153:Generated_Source\PSoC6\pdl\drivers/peripheral/tcpwm/cy_tcpwm_counter.h **** __STATIC_INLINE void Cy_TCPWM_Counter_SetCompare0(TCPWM_Type *base, uint32_t cntNum, uint32_t compa
 154:Generated_Source\PSoC6\pdl\drivers/peripheral/tcpwm/cy_tcpwm_counter.h **** __STATIC_INLINE uint32_t Cy_TCPWM_Counter_GetCompare0(TCPWM_Type const *base, uint32_t cntNum);
 155:Generated_Source\PSoC6\pdl\drivers/peripheral/tcpwm/cy_tcpwm_counter.h **** __STATIC_INLINE void Cy_TCPWM_Counter_SetCompare1(TCPWM_Type *base, uint32_t cntNum, uint32_t compa
 156:Generated_Source\PSoC6\pdl\drivers/peripheral/tcpwm/cy_tcpwm_counter.h **** __STATIC_INLINE uint32_t Cy_TCPWM_Counter_GetCompare1(TCPWM_Type const *base, uint32_t cntNum);
 157:Generated_Source\PSoC6\pdl\drivers/peripheral/tcpwm/cy_tcpwm_counter.h **** __STATIC_INLINE void Cy_TCPWM_Counter_EnableCompareSwap(TCPWM_Type *base, uint32_t cntNum, bool ena
 158:Generated_Source\PSoC6\pdl\drivers/peripheral/tcpwm/cy_tcpwm_counter.h **** __STATIC_INLINE void Cy_TCPWM_Counter_SetCounter(TCPWM_Type *base, uint32_t cntNum, uint32_t count)
 159:Generated_Source\PSoC6\pdl\drivers/peripheral/tcpwm/cy_tcpwm_counter.h **** __STATIC_INLINE uint32_t Cy_TCPWM_Counter_GetCounter(TCPWM_Type const *base, uint32_t cntNum);
 160:Generated_Source\PSoC6\pdl\drivers/peripheral/tcpwm/cy_tcpwm_counter.h **** __STATIC_INLINE void Cy_TCPWM_Counter_SetPeriod(TCPWM_Type *base, uint32_t cntNum, uint32_t period)
 161:Generated_Source\PSoC6\pdl\drivers/peripheral/tcpwm/cy_tcpwm_counter.h **** __STATIC_INLINE uint32_t Cy_TCPWM_Counter_GetPeriod(TCPWM_Type const *base, uint32_t cntNum);
 162:Generated_Source\PSoC6\pdl\drivers/peripheral/tcpwm/cy_tcpwm_counter.h **** 
 163:Generated_Source\PSoC6\pdl\drivers/peripheral/tcpwm/cy_tcpwm_counter.h **** 
 164:Generated_Source\PSoC6\pdl\drivers/peripheral/tcpwm/cy_tcpwm_counter.h **** /*******************************************************************************
 165:Generated_Source\PSoC6\pdl\drivers/peripheral/tcpwm/cy_tcpwm_counter.h **** * Function Name: Cy_TCPWM_Counter_Enable
ARM GAS  C:\Users\cring\AppData\Local\Temp\cc5WibDE.s 			page 11


 166:Generated_Source\PSoC6\pdl\drivers/peripheral/tcpwm/cy_tcpwm_counter.h **** ****************************************************************************//**
 167:Generated_Source\PSoC6\pdl\drivers/peripheral/tcpwm/cy_tcpwm_counter.h **** *
 168:Generated_Source\PSoC6\pdl\drivers/peripheral/tcpwm/cy_tcpwm_counter.h **** * Enables the counter in the TCPWM block for the Counter operation.
 169:Generated_Source\PSoC6\pdl\drivers/peripheral/tcpwm/cy_tcpwm_counter.h **** *
 170:Generated_Source\PSoC6\pdl\drivers/peripheral/tcpwm/cy_tcpwm_counter.h **** * \param base
 171:Generated_Source\PSoC6\pdl\drivers/peripheral/tcpwm/cy_tcpwm_counter.h **** * The pointer to a TCPWM instance.
 172:Generated_Source\PSoC6\pdl\drivers/peripheral/tcpwm/cy_tcpwm_counter.h **** *
 173:Generated_Source\PSoC6\pdl\drivers/peripheral/tcpwm/cy_tcpwm_counter.h **** * \param cntNum 
 174:Generated_Source\PSoC6\pdl\drivers/peripheral/tcpwm/cy_tcpwm_counter.h **** * The Counter instance number in the selected TCPWM.
 175:Generated_Source\PSoC6\pdl\drivers/peripheral/tcpwm/cy_tcpwm_counter.h **** *
 176:Generated_Source\PSoC6\pdl\drivers/peripheral/tcpwm/cy_tcpwm_counter.h **** * \funcusage
 177:Generated_Source\PSoC6\pdl\drivers/peripheral/tcpwm/cy_tcpwm_counter.h **** * \snippet tcpwm\1.10\counter\snippet\main.c snippet_Cy_TCPWM_Counter_Init
 178:Generated_Source\PSoC6\pdl\drivers/peripheral/tcpwm/cy_tcpwm_counter.h **** *
 179:Generated_Source\PSoC6\pdl\drivers/peripheral/tcpwm/cy_tcpwm_counter.h **** *******************************************************************************/
 180:Generated_Source\PSoC6\pdl\drivers/peripheral/tcpwm/cy_tcpwm_counter.h **** __STATIC_INLINE void Cy_TCPWM_Counter_Enable(TCPWM_Type *base, uint32_t cntNum)
 181:Generated_Source\PSoC6\pdl\drivers/peripheral/tcpwm/cy_tcpwm_counter.h **** {
 182:Generated_Source\PSoC6\pdl\drivers/peripheral/tcpwm/cy_tcpwm_counter.h ****     TCPWM_CTRL_SET(base) = (1UL << cntNum);
 183:Generated_Source\PSoC6\pdl\drivers/peripheral/tcpwm/cy_tcpwm_counter.h **** }
 184:Generated_Source\PSoC6\pdl\drivers/peripheral/tcpwm/cy_tcpwm_counter.h **** 
 185:Generated_Source\PSoC6\pdl\drivers/peripheral/tcpwm/cy_tcpwm_counter.h **** 
 186:Generated_Source\PSoC6\pdl\drivers/peripheral/tcpwm/cy_tcpwm_counter.h **** /*******************************************************************************
 187:Generated_Source\PSoC6\pdl\drivers/peripheral/tcpwm/cy_tcpwm_counter.h **** * Function Name: Cy_TCPWM_Counter_Disable
 188:Generated_Source\PSoC6\pdl\drivers/peripheral/tcpwm/cy_tcpwm_counter.h **** ****************************************************************************//**
 189:Generated_Source\PSoC6\pdl\drivers/peripheral/tcpwm/cy_tcpwm_counter.h **** *
 190:Generated_Source\PSoC6\pdl\drivers/peripheral/tcpwm/cy_tcpwm_counter.h **** * Disables the counter in the TCPWM block.
 191:Generated_Source\PSoC6\pdl\drivers/peripheral/tcpwm/cy_tcpwm_counter.h **** *
 192:Generated_Source\PSoC6\pdl\drivers/peripheral/tcpwm/cy_tcpwm_counter.h **** * \param base
 193:Generated_Source\PSoC6\pdl\drivers/peripheral/tcpwm/cy_tcpwm_counter.h **** * The pointer to a TCPWM instance.
 194:Generated_Source\PSoC6\pdl\drivers/peripheral/tcpwm/cy_tcpwm_counter.h **** *
 195:Generated_Source\PSoC6\pdl\drivers/peripheral/tcpwm/cy_tcpwm_counter.h **** * \param cntNum 
 196:Generated_Source\PSoC6\pdl\drivers/peripheral/tcpwm/cy_tcpwm_counter.h **** * The Counter instance number in the selected TCPWM.
 197:Generated_Source\PSoC6\pdl\drivers/peripheral/tcpwm/cy_tcpwm_counter.h **** *
 198:Generated_Source\PSoC6\pdl\drivers/peripheral/tcpwm/cy_tcpwm_counter.h **** * \funcusage
 199:Generated_Source\PSoC6\pdl\drivers/peripheral/tcpwm/cy_tcpwm_counter.h **** * \snippet tcpwm\1.10\counter\snippet\main.c snippet_Cy_TCPWM_Counter_DeInit
 200:Generated_Source\PSoC6\pdl\drivers/peripheral/tcpwm/cy_tcpwm_counter.h **** *
 201:Generated_Source\PSoC6\pdl\drivers/peripheral/tcpwm/cy_tcpwm_counter.h **** *******************************************************************************/
 202:Generated_Source\PSoC6\pdl\drivers/peripheral/tcpwm/cy_tcpwm_counter.h **** __STATIC_INLINE void Cy_TCPWM_Counter_Disable(TCPWM_Type *base, uint32_t cntNum)
 203:Generated_Source\PSoC6\pdl\drivers/peripheral/tcpwm/cy_tcpwm_counter.h **** {
 204:Generated_Source\PSoC6\pdl\drivers/peripheral/tcpwm/cy_tcpwm_counter.h ****     TCPWM_CTRL_CLR(base) = (1UL << cntNum);
 205:Generated_Source\PSoC6\pdl\drivers/peripheral/tcpwm/cy_tcpwm_counter.h **** }
 206:Generated_Source\PSoC6\pdl\drivers/peripheral/tcpwm/cy_tcpwm_counter.h **** 
 207:Generated_Source\PSoC6\pdl\drivers/peripheral/tcpwm/cy_tcpwm_counter.h **** 
 208:Generated_Source\PSoC6\pdl\drivers/peripheral/tcpwm/cy_tcpwm_counter.h **** /*******************************************************************************
 209:Generated_Source\PSoC6\pdl\drivers/peripheral/tcpwm/cy_tcpwm_counter.h **** * Function Name: Cy_TCPWM_Counter_GetStatus
 210:Generated_Source\PSoC6\pdl\drivers/peripheral/tcpwm/cy_tcpwm_counter.h **** ****************************************************************************//**
 211:Generated_Source\PSoC6\pdl\drivers/peripheral/tcpwm/cy_tcpwm_counter.h **** *
 212:Generated_Source\PSoC6\pdl\drivers/peripheral/tcpwm/cy_tcpwm_counter.h **** * Returns the status of the Counter Timer.
 213:Generated_Source\PSoC6\pdl\drivers/peripheral/tcpwm/cy_tcpwm_counter.h **** *
 214:Generated_Source\PSoC6\pdl\drivers/peripheral/tcpwm/cy_tcpwm_counter.h **** * \param base
 215:Generated_Source\PSoC6\pdl\drivers/peripheral/tcpwm/cy_tcpwm_counter.h **** * The pointer to a TCPWM instance.
 216:Generated_Source\PSoC6\pdl\drivers/peripheral/tcpwm/cy_tcpwm_counter.h **** *
 217:Generated_Source\PSoC6\pdl\drivers/peripheral/tcpwm/cy_tcpwm_counter.h **** * \param cntNum 
 218:Generated_Source\PSoC6\pdl\drivers/peripheral/tcpwm/cy_tcpwm_counter.h **** * The Counter instance number in the selected TCPWM.
 219:Generated_Source\PSoC6\pdl\drivers/peripheral/tcpwm/cy_tcpwm_counter.h **** *
 220:Generated_Source\PSoC6\pdl\drivers/peripheral/tcpwm/cy_tcpwm_counter.h **** * \return
 221:Generated_Source\PSoC6\pdl\drivers/peripheral/tcpwm/cy_tcpwm_counter.h **** * The status. See \ref group_tcpwm_counter_status
 222:Generated_Source\PSoC6\pdl\drivers/peripheral/tcpwm/cy_tcpwm_counter.h **** *
ARM GAS  C:\Users\cring\AppData\Local\Temp\cc5WibDE.s 			page 12


 223:Generated_Source\PSoC6\pdl\drivers/peripheral/tcpwm/cy_tcpwm_counter.h **** * \funcusage
 224:Generated_Source\PSoC6\pdl\drivers/peripheral/tcpwm/cy_tcpwm_counter.h **** * \snippet tcpwm\1.10\counter\snippet\main.c snippet_Cy_TCPWM_Counter_GetStatus
 225:Generated_Source\PSoC6\pdl\drivers/peripheral/tcpwm/cy_tcpwm_counter.h **** *
 226:Generated_Source\PSoC6\pdl\drivers/peripheral/tcpwm/cy_tcpwm_counter.h **** *******************************************************************************/
 227:Generated_Source\PSoC6\pdl\drivers/peripheral/tcpwm/cy_tcpwm_counter.h **** __STATIC_INLINE uint32_t Cy_TCPWM_Counter_GetStatus(TCPWM_Type const  *base, uint32_t cntNum)
 228:Generated_Source\PSoC6\pdl\drivers/peripheral/tcpwm/cy_tcpwm_counter.h **** {
 229:Generated_Source\PSoC6\pdl\drivers/peripheral/tcpwm/cy_tcpwm_counter.h ****     uint32_t status = TCPWM_CNT_STATUS(base, cntNum);
 230:Generated_Source\PSoC6\pdl\drivers/peripheral/tcpwm/cy_tcpwm_counter.h ****     
 231:Generated_Source\PSoC6\pdl\drivers/peripheral/tcpwm/cy_tcpwm_counter.h ****     /* Generates proper up counting status. Is not generated by HW */
 232:Generated_Source\PSoC6\pdl\drivers/peripheral/tcpwm/cy_tcpwm_counter.h ****     status &= ~CY_TCPWM_COUNTER_STATUS_UP_COUNTING;
 233:Generated_Source\PSoC6\pdl\drivers/peripheral/tcpwm/cy_tcpwm_counter.h ****     status |= ((~status & CY_TCPWM_COUNTER_STATUS_DOWN_COUNTING & (status >> TCPWM_CNT_STATUS_RUNNI
 234:Generated_Source\PSoC6\pdl\drivers/peripheral/tcpwm/cy_tcpwm_counter.h ****                CY_TCPWM_CNT_STATUS_UP_POS);
 235:Generated_Source\PSoC6\pdl\drivers/peripheral/tcpwm/cy_tcpwm_counter.h **** 
 236:Generated_Source\PSoC6\pdl\drivers/peripheral/tcpwm/cy_tcpwm_counter.h ****     return(status);
 237:Generated_Source\PSoC6\pdl\drivers/peripheral/tcpwm/cy_tcpwm_counter.h **** }
 238:Generated_Source\PSoC6\pdl\drivers/peripheral/tcpwm/cy_tcpwm_counter.h **** 
 239:Generated_Source\PSoC6\pdl\drivers/peripheral/tcpwm/cy_tcpwm_counter.h **** 
 240:Generated_Source\PSoC6\pdl\drivers/peripheral/tcpwm/cy_tcpwm_counter.h **** /*******************************************************************************
 241:Generated_Source\PSoC6\pdl\drivers/peripheral/tcpwm/cy_tcpwm_counter.h **** * Function Name: Cy_TCPWM_Counter_GetCapture
 242:Generated_Source\PSoC6\pdl\drivers/peripheral/tcpwm/cy_tcpwm_counter.h **** ****************************************************************************//**
 243:Generated_Source\PSoC6\pdl\drivers/peripheral/tcpwm/cy_tcpwm_counter.h **** *
 244:Generated_Source\PSoC6\pdl\drivers/peripheral/tcpwm/cy_tcpwm_counter.h **** * Returns the capture value when the capture mode is enabled.
 245:Generated_Source\PSoC6\pdl\drivers/peripheral/tcpwm/cy_tcpwm_counter.h **** *
 246:Generated_Source\PSoC6\pdl\drivers/peripheral/tcpwm/cy_tcpwm_counter.h **** * \param base
 247:Generated_Source\PSoC6\pdl\drivers/peripheral/tcpwm/cy_tcpwm_counter.h **** * The pointer to a TCPWM instance.
 248:Generated_Source\PSoC6\pdl\drivers/peripheral/tcpwm/cy_tcpwm_counter.h **** *
 249:Generated_Source\PSoC6\pdl\drivers/peripheral/tcpwm/cy_tcpwm_counter.h **** * \param cntNum 
 250:Generated_Source\PSoC6\pdl\drivers/peripheral/tcpwm/cy_tcpwm_counter.h **** * The Counter instance number in the selected TCPWM.
 251:Generated_Source\PSoC6\pdl\drivers/peripheral/tcpwm/cy_tcpwm_counter.h **** *
 252:Generated_Source\PSoC6\pdl\drivers/peripheral/tcpwm/cy_tcpwm_counter.h **** * \return
 253:Generated_Source\PSoC6\pdl\drivers/peripheral/tcpwm/cy_tcpwm_counter.h **** * The capture value.
 254:Generated_Source\PSoC6\pdl\drivers/peripheral/tcpwm/cy_tcpwm_counter.h **** *
 255:Generated_Source\PSoC6\pdl\drivers/peripheral/tcpwm/cy_tcpwm_counter.h **** * \funcusage
 256:Generated_Source\PSoC6\pdl\drivers/peripheral/tcpwm/cy_tcpwm_counter.h **** * \snippet tcpwm\1.10\counter\snippet\main.c snippet_Cy_TCPWM_Counter_Capture
 257:Generated_Source\PSoC6\pdl\drivers/peripheral/tcpwm/cy_tcpwm_counter.h **** *
 258:Generated_Source\PSoC6\pdl\drivers/peripheral/tcpwm/cy_tcpwm_counter.h **** *******************************************************************************/
 259:Generated_Source\PSoC6\pdl\drivers/peripheral/tcpwm/cy_tcpwm_counter.h **** __STATIC_INLINE uint32_t Cy_TCPWM_Counter_GetCapture(TCPWM_Type const  *base, uint32_t cntNum)
 260:Generated_Source\PSoC6\pdl\drivers/peripheral/tcpwm/cy_tcpwm_counter.h **** {
 261:Generated_Source\PSoC6\pdl\drivers/peripheral/tcpwm/cy_tcpwm_counter.h ****     return(TCPWM_CNT_CC(base, cntNum));
 262:Generated_Source\PSoC6\pdl\drivers/peripheral/tcpwm/cy_tcpwm_counter.h **** }
 263:Generated_Source\PSoC6\pdl\drivers/peripheral/tcpwm/cy_tcpwm_counter.h **** 
 264:Generated_Source\PSoC6\pdl\drivers/peripheral/tcpwm/cy_tcpwm_counter.h **** 
 265:Generated_Source\PSoC6\pdl\drivers/peripheral/tcpwm/cy_tcpwm_counter.h **** /*******************************************************************************
 266:Generated_Source\PSoC6\pdl\drivers/peripheral/tcpwm/cy_tcpwm_counter.h **** * Function Name: Cy_TCPWM_Counter_GetCaptureBuf
 267:Generated_Source\PSoC6\pdl\drivers/peripheral/tcpwm/cy_tcpwm_counter.h **** ****************************************************************************//**
 268:Generated_Source\PSoC6\pdl\drivers/peripheral/tcpwm/cy_tcpwm_counter.h **** *
 269:Generated_Source\PSoC6\pdl\drivers/peripheral/tcpwm/cy_tcpwm_counter.h **** * Returns the buffered capture value when the capture mode is enabled.
 270:Generated_Source\PSoC6\pdl\drivers/peripheral/tcpwm/cy_tcpwm_counter.h **** *
 271:Generated_Source\PSoC6\pdl\drivers/peripheral/tcpwm/cy_tcpwm_counter.h **** * \param base
 272:Generated_Source\PSoC6\pdl\drivers/peripheral/tcpwm/cy_tcpwm_counter.h **** * The pointer to a TCPWM instance.
 273:Generated_Source\PSoC6\pdl\drivers/peripheral/tcpwm/cy_tcpwm_counter.h **** *
 274:Generated_Source\PSoC6\pdl\drivers/peripheral/tcpwm/cy_tcpwm_counter.h **** * \param cntNum 
 275:Generated_Source\PSoC6\pdl\drivers/peripheral/tcpwm/cy_tcpwm_counter.h **** * The Counter instance number in the selected TCPWM.
 276:Generated_Source\PSoC6\pdl\drivers/peripheral/tcpwm/cy_tcpwm_counter.h **** *
 277:Generated_Source\PSoC6\pdl\drivers/peripheral/tcpwm/cy_tcpwm_counter.h **** * \return
 278:Generated_Source\PSoC6\pdl\drivers/peripheral/tcpwm/cy_tcpwm_counter.h **** * The buffered capture value.
 279:Generated_Source\PSoC6\pdl\drivers/peripheral/tcpwm/cy_tcpwm_counter.h **** *
ARM GAS  C:\Users\cring\AppData\Local\Temp\cc5WibDE.s 			page 13


 280:Generated_Source\PSoC6\pdl\drivers/peripheral/tcpwm/cy_tcpwm_counter.h **** * \funcusage
 281:Generated_Source\PSoC6\pdl\drivers/peripheral/tcpwm/cy_tcpwm_counter.h **** * \snippet tcpwm\1.10\counter\snippet\main.c snippet_Cy_TCPWM_Counter_Capture
 282:Generated_Source\PSoC6\pdl\drivers/peripheral/tcpwm/cy_tcpwm_counter.h **** *
 283:Generated_Source\PSoC6\pdl\drivers/peripheral/tcpwm/cy_tcpwm_counter.h **** *******************************************************************************/
 284:Generated_Source\PSoC6\pdl\drivers/peripheral/tcpwm/cy_tcpwm_counter.h **** __STATIC_INLINE uint32_t Cy_TCPWM_Counter_GetCaptureBuf(TCPWM_Type const  *base, uint32_t cntNum)
 285:Generated_Source\PSoC6\pdl\drivers/peripheral/tcpwm/cy_tcpwm_counter.h **** {
 286:Generated_Source\PSoC6\pdl\drivers/peripheral/tcpwm/cy_tcpwm_counter.h ****     return(TCPWM_CNT_CC_BUFF(base, cntNum));
 287:Generated_Source\PSoC6\pdl\drivers/peripheral/tcpwm/cy_tcpwm_counter.h **** }
 288:Generated_Source\PSoC6\pdl\drivers/peripheral/tcpwm/cy_tcpwm_counter.h **** 
 289:Generated_Source\PSoC6\pdl\drivers/peripheral/tcpwm/cy_tcpwm_counter.h **** 
 290:Generated_Source\PSoC6\pdl\drivers/peripheral/tcpwm/cy_tcpwm_counter.h **** /*******************************************************************************
 291:Generated_Source\PSoC6\pdl\drivers/peripheral/tcpwm/cy_tcpwm_counter.h **** * Function Name: Cy_TCPWM_Counter_SetCompare0
 292:Generated_Source\PSoC6\pdl\drivers/peripheral/tcpwm/cy_tcpwm_counter.h **** ****************************************************************************//**
 293:Generated_Source\PSoC6\pdl\drivers/peripheral/tcpwm/cy_tcpwm_counter.h **** *
 294:Generated_Source\PSoC6\pdl\drivers/peripheral/tcpwm/cy_tcpwm_counter.h **** * Sets the compare value for Compare0 when the compare mode is enabled.
 295:Generated_Source\PSoC6\pdl\drivers/peripheral/tcpwm/cy_tcpwm_counter.h **** *
 296:Generated_Source\PSoC6\pdl\drivers/peripheral/tcpwm/cy_tcpwm_counter.h **** * \param base
 297:Generated_Source\PSoC6\pdl\drivers/peripheral/tcpwm/cy_tcpwm_counter.h **** * The pointer to a TCPWM instance.
 298:Generated_Source\PSoC6\pdl\drivers/peripheral/tcpwm/cy_tcpwm_counter.h **** *
 299:Generated_Source\PSoC6\pdl\drivers/peripheral/tcpwm/cy_tcpwm_counter.h **** * \param cntNum 
 300:Generated_Source\PSoC6\pdl\drivers/peripheral/tcpwm/cy_tcpwm_counter.h **** * The Counter instance number in the selected TCPWM.
 301:Generated_Source\PSoC6\pdl\drivers/peripheral/tcpwm/cy_tcpwm_counter.h **** *
 302:Generated_Source\PSoC6\pdl\drivers/peripheral/tcpwm/cy_tcpwm_counter.h **** * \param compare0
 303:Generated_Source\PSoC6\pdl\drivers/peripheral/tcpwm/cy_tcpwm_counter.h **** * The Compare0 value.
 304:Generated_Source\PSoC6\pdl\drivers/peripheral/tcpwm/cy_tcpwm_counter.h **** *
 305:Generated_Source\PSoC6\pdl\drivers/peripheral/tcpwm/cy_tcpwm_counter.h **** * \funcusage
 306:Generated_Source\PSoC6\pdl\drivers/peripheral/tcpwm/cy_tcpwm_counter.h **** * \snippet tcpwm\1.10\counter\snippet\main.c snippet_Cy_TCPWM_Counter_SetCompare0
 307:Generated_Source\PSoC6\pdl\drivers/peripheral/tcpwm/cy_tcpwm_counter.h **** *
 308:Generated_Source\PSoC6\pdl\drivers/peripheral/tcpwm/cy_tcpwm_counter.h **** *******************************************************************************/
 309:Generated_Source\PSoC6\pdl\drivers/peripheral/tcpwm/cy_tcpwm_counter.h **** __STATIC_INLINE void Cy_TCPWM_Counter_SetCompare0(TCPWM_Type *base, uint32_t cntNum,  uint32_t comp
 310:Generated_Source\PSoC6\pdl\drivers/peripheral/tcpwm/cy_tcpwm_counter.h **** {
 311:Generated_Source\PSoC6\pdl\drivers/peripheral/tcpwm/cy_tcpwm_counter.h ****     TCPWM_CNT_CC(base, cntNum) = compare0;
 312:Generated_Source\PSoC6\pdl\drivers/peripheral/tcpwm/cy_tcpwm_counter.h **** }
 313:Generated_Source\PSoC6\pdl\drivers/peripheral/tcpwm/cy_tcpwm_counter.h **** 
 314:Generated_Source\PSoC6\pdl\drivers/peripheral/tcpwm/cy_tcpwm_counter.h **** 
 315:Generated_Source\PSoC6\pdl\drivers/peripheral/tcpwm/cy_tcpwm_counter.h **** /*******************************************************************************
 316:Generated_Source\PSoC6\pdl\drivers/peripheral/tcpwm/cy_tcpwm_counter.h **** * Function Name: Cy_TCPWM_Counter_GetCompare0
 317:Generated_Source\PSoC6\pdl\drivers/peripheral/tcpwm/cy_tcpwm_counter.h **** ****************************************************************************//**
 318:Generated_Source\PSoC6\pdl\drivers/peripheral/tcpwm/cy_tcpwm_counter.h **** *
 319:Generated_Source\PSoC6\pdl\drivers/peripheral/tcpwm/cy_tcpwm_counter.h **** * Returns compare value 0.
 320:Generated_Source\PSoC6\pdl\drivers/peripheral/tcpwm/cy_tcpwm_counter.h **** *
 321:Generated_Source\PSoC6\pdl\drivers/peripheral/tcpwm/cy_tcpwm_counter.h **** * \param base
 322:Generated_Source\PSoC6\pdl\drivers/peripheral/tcpwm/cy_tcpwm_counter.h **** * The pointer to a TCPWM instance.
 323:Generated_Source\PSoC6\pdl\drivers/peripheral/tcpwm/cy_tcpwm_counter.h **** *
 324:Generated_Source\PSoC6\pdl\drivers/peripheral/tcpwm/cy_tcpwm_counter.h **** * \param cntNum 
 325:Generated_Source\PSoC6\pdl\drivers/peripheral/tcpwm/cy_tcpwm_counter.h **** * The Counter instance number in the selected TCPWM.
 326:Generated_Source\PSoC6\pdl\drivers/peripheral/tcpwm/cy_tcpwm_counter.h **** *
 327:Generated_Source\PSoC6\pdl\drivers/peripheral/tcpwm/cy_tcpwm_counter.h **** * \return
 328:Generated_Source\PSoC6\pdl\drivers/peripheral/tcpwm/cy_tcpwm_counter.h **** * Compare value 0.
 329:Generated_Source\PSoC6\pdl\drivers/peripheral/tcpwm/cy_tcpwm_counter.h **** *
 330:Generated_Source\PSoC6\pdl\drivers/peripheral/tcpwm/cy_tcpwm_counter.h **** * \funcusage
 331:Generated_Source\PSoC6\pdl\drivers/peripheral/tcpwm/cy_tcpwm_counter.h **** * \snippet tcpwm\1.10\counter\snippet\main.c snippet_Cy_TCPWM_Counter_SetCompare0
 332:Generated_Source\PSoC6\pdl\drivers/peripheral/tcpwm/cy_tcpwm_counter.h **** *
 333:Generated_Source\PSoC6\pdl\drivers/peripheral/tcpwm/cy_tcpwm_counter.h **** *******************************************************************************/
 334:Generated_Source\PSoC6\pdl\drivers/peripheral/tcpwm/cy_tcpwm_counter.h **** __STATIC_INLINE uint32_t Cy_TCPWM_Counter_GetCompare0(TCPWM_Type const  *base, uint32_t cntNum)
 335:Generated_Source\PSoC6\pdl\drivers/peripheral/tcpwm/cy_tcpwm_counter.h **** {
 336:Generated_Source\PSoC6\pdl\drivers/peripheral/tcpwm/cy_tcpwm_counter.h ****     return(TCPWM_CNT_CC(base, cntNum));
ARM GAS  C:\Users\cring\AppData\Local\Temp\cc5WibDE.s 			page 14


 337:Generated_Source\PSoC6\pdl\drivers/peripheral/tcpwm/cy_tcpwm_counter.h **** }
 338:Generated_Source\PSoC6\pdl\drivers/peripheral/tcpwm/cy_tcpwm_counter.h **** 
 339:Generated_Source\PSoC6\pdl\drivers/peripheral/tcpwm/cy_tcpwm_counter.h **** 
 340:Generated_Source\PSoC6\pdl\drivers/peripheral/tcpwm/cy_tcpwm_counter.h **** /*******************************************************************************
 341:Generated_Source\PSoC6\pdl\drivers/peripheral/tcpwm/cy_tcpwm_counter.h **** * Function Name: Cy_TCPWM_Counter_SetCompare1
 342:Generated_Source\PSoC6\pdl\drivers/peripheral/tcpwm/cy_tcpwm_counter.h **** ****************************************************************************//**
 343:Generated_Source\PSoC6\pdl\drivers/peripheral/tcpwm/cy_tcpwm_counter.h **** *
 344:Generated_Source\PSoC6\pdl\drivers/peripheral/tcpwm/cy_tcpwm_counter.h **** * Sets the compare value for Compare1 when the compare mode is enabled.
 345:Generated_Source\PSoC6\pdl\drivers/peripheral/tcpwm/cy_tcpwm_counter.h **** *
 346:Generated_Source\PSoC6\pdl\drivers/peripheral/tcpwm/cy_tcpwm_counter.h **** * \param base
 347:Generated_Source\PSoC6\pdl\drivers/peripheral/tcpwm/cy_tcpwm_counter.h **** * The pointer to a TCPWM instance.
 348:Generated_Source\PSoC6\pdl\drivers/peripheral/tcpwm/cy_tcpwm_counter.h **** *
 349:Generated_Source\PSoC6\pdl\drivers/peripheral/tcpwm/cy_tcpwm_counter.h **** * \param cntNum 
 350:Generated_Source\PSoC6\pdl\drivers/peripheral/tcpwm/cy_tcpwm_counter.h **** * The Counter instance number in the selected TCPWM.
 351:Generated_Source\PSoC6\pdl\drivers/peripheral/tcpwm/cy_tcpwm_counter.h **** *
 352:Generated_Source\PSoC6\pdl\drivers/peripheral/tcpwm/cy_tcpwm_counter.h **** * \param compare1
 353:Generated_Source\PSoC6\pdl\drivers/peripheral/tcpwm/cy_tcpwm_counter.h **** * The Compare1 value.
 354:Generated_Source\PSoC6\pdl\drivers/peripheral/tcpwm/cy_tcpwm_counter.h **** *
 355:Generated_Source\PSoC6\pdl\drivers/peripheral/tcpwm/cy_tcpwm_counter.h **** * \funcusage
 356:Generated_Source\PSoC6\pdl\drivers/peripheral/tcpwm/cy_tcpwm_counter.h **** * \snippet tcpwm\1.10\counter\snippet\main.c snippet_Cy_TCPWM_Counter_SetCompare1
 357:Generated_Source\PSoC6\pdl\drivers/peripheral/tcpwm/cy_tcpwm_counter.h **** *
 358:Generated_Source\PSoC6\pdl\drivers/peripheral/tcpwm/cy_tcpwm_counter.h **** *******************************************************************************/
 359:Generated_Source\PSoC6\pdl\drivers/peripheral/tcpwm/cy_tcpwm_counter.h **** __STATIC_INLINE void Cy_TCPWM_Counter_SetCompare1(TCPWM_Type *base, uint32_t cntNum,  uint32_t comp
 360:Generated_Source\PSoC6\pdl\drivers/peripheral/tcpwm/cy_tcpwm_counter.h **** {
 361:Generated_Source\PSoC6\pdl\drivers/peripheral/tcpwm/cy_tcpwm_counter.h ****     TCPWM_CNT_CC_BUFF(base, cntNum) = compare1;
 362:Generated_Source\PSoC6\pdl\drivers/peripheral/tcpwm/cy_tcpwm_counter.h **** }
 363:Generated_Source\PSoC6\pdl\drivers/peripheral/tcpwm/cy_tcpwm_counter.h **** 
 364:Generated_Source\PSoC6\pdl\drivers/peripheral/tcpwm/cy_tcpwm_counter.h **** 
 365:Generated_Source\PSoC6\pdl\drivers/peripheral/tcpwm/cy_tcpwm_counter.h **** /*******************************************************************************
 366:Generated_Source\PSoC6\pdl\drivers/peripheral/tcpwm/cy_tcpwm_counter.h **** * Function Name: Cy_TCPWM_Counter_GetCompare1
 367:Generated_Source\PSoC6\pdl\drivers/peripheral/tcpwm/cy_tcpwm_counter.h **** ****************************************************************************//**
 368:Generated_Source\PSoC6\pdl\drivers/peripheral/tcpwm/cy_tcpwm_counter.h **** *
 369:Generated_Source\PSoC6\pdl\drivers/peripheral/tcpwm/cy_tcpwm_counter.h **** * Returns compare value 1.
 370:Generated_Source\PSoC6\pdl\drivers/peripheral/tcpwm/cy_tcpwm_counter.h **** *
 371:Generated_Source\PSoC6\pdl\drivers/peripheral/tcpwm/cy_tcpwm_counter.h **** * \param base
 372:Generated_Source\PSoC6\pdl\drivers/peripheral/tcpwm/cy_tcpwm_counter.h **** * The pointer to a TCPWM instance.
 373:Generated_Source\PSoC6\pdl\drivers/peripheral/tcpwm/cy_tcpwm_counter.h **** *
 374:Generated_Source\PSoC6\pdl\drivers/peripheral/tcpwm/cy_tcpwm_counter.h **** * \param cntNum 
 375:Generated_Source\PSoC6\pdl\drivers/peripheral/tcpwm/cy_tcpwm_counter.h **** * The Counter instance number in the selected TCPWM.
 376:Generated_Source\PSoC6\pdl\drivers/peripheral/tcpwm/cy_tcpwm_counter.h **** *
 377:Generated_Source\PSoC6\pdl\drivers/peripheral/tcpwm/cy_tcpwm_counter.h **** * \return
 378:Generated_Source\PSoC6\pdl\drivers/peripheral/tcpwm/cy_tcpwm_counter.h **** * Compare value 1.
 379:Generated_Source\PSoC6\pdl\drivers/peripheral/tcpwm/cy_tcpwm_counter.h **** *
 380:Generated_Source\PSoC6\pdl\drivers/peripheral/tcpwm/cy_tcpwm_counter.h **** * \funcusage
 381:Generated_Source\PSoC6\pdl\drivers/peripheral/tcpwm/cy_tcpwm_counter.h **** * \snippet tcpwm\1.10\counter\snippet\main.c snippet_Cy_TCPWM_Counter_SetCompare1
 382:Generated_Source\PSoC6\pdl\drivers/peripheral/tcpwm/cy_tcpwm_counter.h **** *
 383:Generated_Source\PSoC6\pdl\drivers/peripheral/tcpwm/cy_tcpwm_counter.h **** *******************************************************************************/
 384:Generated_Source\PSoC6\pdl\drivers/peripheral/tcpwm/cy_tcpwm_counter.h **** __STATIC_INLINE uint32_t Cy_TCPWM_Counter_GetCompare1(TCPWM_Type const  *base, uint32_t cntNum)
 385:Generated_Source\PSoC6\pdl\drivers/peripheral/tcpwm/cy_tcpwm_counter.h **** {
 386:Generated_Source\PSoC6\pdl\drivers/peripheral/tcpwm/cy_tcpwm_counter.h ****     return(TCPWM_CNT_CC_BUFF(base, cntNum));
 387:Generated_Source\PSoC6\pdl\drivers/peripheral/tcpwm/cy_tcpwm_counter.h **** }
 388:Generated_Source\PSoC6\pdl\drivers/peripheral/tcpwm/cy_tcpwm_counter.h **** 
 389:Generated_Source\PSoC6\pdl\drivers/peripheral/tcpwm/cy_tcpwm_counter.h **** 
 390:Generated_Source\PSoC6\pdl\drivers/peripheral/tcpwm/cy_tcpwm_counter.h **** /*******************************************************************************
 391:Generated_Source\PSoC6\pdl\drivers/peripheral/tcpwm/cy_tcpwm_counter.h **** * Function Name: Cy_TCPWM_Counter_EnableCompareSwap
 392:Generated_Source\PSoC6\pdl\drivers/peripheral/tcpwm/cy_tcpwm_counter.h **** ****************************************************************************//**
 393:Generated_Source\PSoC6\pdl\drivers/peripheral/tcpwm/cy_tcpwm_counter.h **** *
ARM GAS  C:\Users\cring\AppData\Local\Temp\cc5WibDE.s 			page 15


 394:Generated_Source\PSoC6\pdl\drivers/peripheral/tcpwm/cy_tcpwm_counter.h **** * Enables the comparison swap when the comparison value is true.
 395:Generated_Source\PSoC6\pdl\drivers/peripheral/tcpwm/cy_tcpwm_counter.h **** *
 396:Generated_Source\PSoC6\pdl\drivers/peripheral/tcpwm/cy_tcpwm_counter.h **** * \param base
 397:Generated_Source\PSoC6\pdl\drivers/peripheral/tcpwm/cy_tcpwm_counter.h **** * The pointer to a TCPWM instance.
 398:Generated_Source\PSoC6\pdl\drivers/peripheral/tcpwm/cy_tcpwm_counter.h **** *
 399:Generated_Source\PSoC6\pdl\drivers/peripheral/tcpwm/cy_tcpwm_counter.h **** * \param cntNum 
 400:Generated_Source\PSoC6\pdl\drivers/peripheral/tcpwm/cy_tcpwm_counter.h **** * The Counter instance number in the selected TCPWM.
 401:Generated_Source\PSoC6\pdl\drivers/peripheral/tcpwm/cy_tcpwm_counter.h **** *
 402:Generated_Source\PSoC6\pdl\drivers/peripheral/tcpwm/cy_tcpwm_counter.h **** * \param enable
 403:Generated_Source\PSoC6\pdl\drivers/peripheral/tcpwm/cy_tcpwm_counter.h **** * true = swap enabled, false = swap disabled
 404:Generated_Source\PSoC6\pdl\drivers/peripheral/tcpwm/cy_tcpwm_counter.h **** *
 405:Generated_Source\PSoC6\pdl\drivers/peripheral/tcpwm/cy_tcpwm_counter.h **** * \funcusage
 406:Generated_Source\PSoC6\pdl\drivers/peripheral/tcpwm/cy_tcpwm_counter.h **** * \snippet tcpwm\1.10\counter\snippet\main.c snippet_Cy_TCPWM_Counter_EnableCompareSwap
 407:Generated_Source\PSoC6\pdl\drivers/peripheral/tcpwm/cy_tcpwm_counter.h **** *
 408:Generated_Source\PSoC6\pdl\drivers/peripheral/tcpwm/cy_tcpwm_counter.h **** *******************************************************************************/
 409:Generated_Source\PSoC6\pdl\drivers/peripheral/tcpwm/cy_tcpwm_counter.h **** __STATIC_INLINE void Cy_TCPWM_Counter_EnableCompareSwap(TCPWM_Type *base, uint32_t cntNum,  bool en
 410:Generated_Source\PSoC6\pdl\drivers/peripheral/tcpwm/cy_tcpwm_counter.h **** {
 411:Generated_Source\PSoC6\pdl\drivers/peripheral/tcpwm/cy_tcpwm_counter.h ****     if (enable)
 412:Generated_Source\PSoC6\pdl\drivers/peripheral/tcpwm/cy_tcpwm_counter.h ****     {
 413:Generated_Source\PSoC6\pdl\drivers/peripheral/tcpwm/cy_tcpwm_counter.h ****         TCPWM_CNT_CTRL(base, cntNum) |=  TCPWM_CNT_CTRL_AUTO_RELOAD_CC_Msk;
 414:Generated_Source\PSoC6\pdl\drivers/peripheral/tcpwm/cy_tcpwm_counter.h ****     }
 415:Generated_Source\PSoC6\pdl\drivers/peripheral/tcpwm/cy_tcpwm_counter.h ****     else
 416:Generated_Source\PSoC6\pdl\drivers/peripheral/tcpwm/cy_tcpwm_counter.h ****     {
 417:Generated_Source\PSoC6\pdl\drivers/peripheral/tcpwm/cy_tcpwm_counter.h ****         TCPWM_CNT_CTRL(base, cntNum) &= ~TCPWM_CNT_CTRL_AUTO_RELOAD_CC_Msk;
 418:Generated_Source\PSoC6\pdl\drivers/peripheral/tcpwm/cy_tcpwm_counter.h ****     }
 419:Generated_Source\PSoC6\pdl\drivers/peripheral/tcpwm/cy_tcpwm_counter.h **** }
 420:Generated_Source\PSoC6\pdl\drivers/peripheral/tcpwm/cy_tcpwm_counter.h **** 
 421:Generated_Source\PSoC6\pdl\drivers/peripheral/tcpwm/cy_tcpwm_counter.h **** 
 422:Generated_Source\PSoC6\pdl\drivers/peripheral/tcpwm/cy_tcpwm_counter.h **** /*******************************************************************************
 423:Generated_Source\PSoC6\pdl\drivers/peripheral/tcpwm/cy_tcpwm_counter.h **** * Function Name: Cy_TCPWM_Counter_SetCounter
 424:Generated_Source\PSoC6\pdl\drivers/peripheral/tcpwm/cy_tcpwm_counter.h **** ****************************************************************************//**
 425:Generated_Source\PSoC6\pdl\drivers/peripheral/tcpwm/cy_tcpwm_counter.h **** *
 426:Generated_Source\PSoC6\pdl\drivers/peripheral/tcpwm/cy_tcpwm_counter.h **** * Sets the value of the counter.
 427:Generated_Source\PSoC6\pdl\drivers/peripheral/tcpwm/cy_tcpwm_counter.h **** *
 428:Generated_Source\PSoC6\pdl\drivers/peripheral/tcpwm/cy_tcpwm_counter.h **** * \param base
 429:Generated_Source\PSoC6\pdl\drivers/peripheral/tcpwm/cy_tcpwm_counter.h **** * The pointer to a TCPWM instance.
 430:Generated_Source\PSoC6\pdl\drivers/peripheral/tcpwm/cy_tcpwm_counter.h **** *
 431:Generated_Source\PSoC6\pdl\drivers/peripheral/tcpwm/cy_tcpwm_counter.h **** * \param cntNum 
 432:Generated_Source\PSoC6\pdl\drivers/peripheral/tcpwm/cy_tcpwm_counter.h **** * The Counter instance number in the selected TCPWM.
 433:Generated_Source\PSoC6\pdl\drivers/peripheral/tcpwm/cy_tcpwm_counter.h **** *
 434:Generated_Source\PSoC6\pdl\drivers/peripheral/tcpwm/cy_tcpwm_counter.h **** * \param count
 435:Generated_Source\PSoC6\pdl\drivers/peripheral/tcpwm/cy_tcpwm_counter.h **** * The value to write into the counter.
 436:Generated_Source\PSoC6\pdl\drivers/peripheral/tcpwm/cy_tcpwm_counter.h **** *
 437:Generated_Source\PSoC6\pdl\drivers/peripheral/tcpwm/cy_tcpwm_counter.h **** * \funcusage
 438:Generated_Source\PSoC6\pdl\drivers/peripheral/tcpwm/cy_tcpwm_counter.h **** * \snippet tcpwm\1.10\counter\snippet\main.c snippet_Cy_TCPWM_Counter_SetCounter
 439:Generated_Source\PSoC6\pdl\drivers/peripheral/tcpwm/cy_tcpwm_counter.h **** *
 440:Generated_Source\PSoC6\pdl\drivers/peripheral/tcpwm/cy_tcpwm_counter.h **** *******************************************************************************/
 441:Generated_Source\PSoC6\pdl\drivers/peripheral/tcpwm/cy_tcpwm_counter.h **** __STATIC_INLINE void Cy_TCPWM_Counter_SetCounter(TCPWM_Type *base, uint32_t cntNum, uint32_t count)
 442:Generated_Source\PSoC6\pdl\drivers/peripheral/tcpwm/cy_tcpwm_counter.h **** {
 443:Generated_Source\PSoC6\pdl\drivers/peripheral/tcpwm/cy_tcpwm_counter.h ****     TCPWM_CNT_COUNTER(base, cntNum) = count;
 301              		.loc 2 443 0
 302 0006 034A     		ldr	r2, .L22+4
 303 0008 C2F84831 		str	r3, [r2, #328]
 304              	.LVL27:
 305 000c 7047     		bx	lr
 306              	.L23:
 307 000e 00BF     		.align	2
ARM GAS  C:\Users\cring\AppData\Local\Temp\cc5WibDE.s 			page 16


 308              	.L22:
 309 0010 00000000 		.word	.LANCHOR0
 310 0014 00003840 		.word	1077411840
 311              	.LBE10:
 312              	.LBE9:
 313              	.LBE8:
 314              		.cfi_endproc
 315              	.LFE701:
 316              		.size	resetIdleCountdown, .-resetIdleCountdown
 317              		.section	.text.wakeUpHandler,"ax",%progbits
 318              		.align	2
 319              		.global	wakeUpHandler
 320              		.thumb
 321              		.thumb_func
 322              		.type	wakeUpHandler, %function
 323              	wakeUpHandler:
 324              	.LFB703:
  85:POPE-app.c    ****     #endif
  86:POPE-app.c    **** }
  87:POPE-app.c    **** 
  88:POPE-app.c    **** void wakeUpHandler()
  89:POPE-app.c    **** {
 325              		.loc 1 89 0
 326              		.cfi_startproc
 327              		@ args = 0, pretend = 0, frame = 0
 328              		@ frame_needed = 0, uses_anonymous_args = 0
 329              		@ link register save eliminated.
 330 0000 7047     		bx	lr
 331              		.cfi_endproc
 332              	.LFE703:
 333              		.size	wakeUpHandler, .-wakeUpHandler
 334              		.comm	uart_string,50,4
 335              		.global	idleCounter
 336              		.comm	RPM,4,4
 337              		.comm	buffer,22,4
 338              		.comm	devAddr,1,1
 339 0002 00BF     		.section	.rodata.str1.4,"aMS",%progbits,1
 340              		.align	2
 341              	.LC0:
 342 0000 43505520 		.ascii	"CPU Deep Sleep: %i\000"
 342      44656570 
 342      20536C65 
 342      65703A20 
 342      256900
 343 0013 00       		.space	1
 344              	.LC1:
 345 0014 3900     		.ascii	"9\000"
 346 0016 0000     		.space	2
 347              	.LC2:
 348 0018 69646C65 		.ascii	"idleCounter overflow: %i\000"
 348      436F756E 
 348      74657220 
 348      6F766572 
 348      666C6F77 
 349 0031 000000   		.space	3
 350              	.LC3:
 351 0034 313000   		.ascii	"10\000"
ARM GAS  C:\Users\cring\AppData\Local\Temp\cc5WibDE.s 			page 17


 352              		.bss
 353              		.align	1
 354              		.set	.LANCHOR0,. + 0
 355              		.type	idleCounter, %object
 356              		.size	idleCounter, 2
 357              	idleCounter:
 358 0000 0000     		.space	2
 359              		.text
 360              	.Letext0:
 361              		.file 3 "Generated_Source\\PSoC6\\pdl\\devices/psoc6/include/cyble_416045_02.h"
 362              		.file 4 "c:\\program files (x86)\\cypress\\psoc creator\\4.4\\psoc creator\\import\\gnu\\arm\\5.4.
 363              		.file 5 "c:\\program files (x86)\\cypress\\psoc creator\\4.4\\psoc creator\\import\\gnu\\arm\\5.4.
 364              		.file 6 "Generated_Source\\PSoC6\\pdl\\devices/psoc6/include/ip/cyip_tcpwm.h"
 365              		.file 7 "Generated_Source\\PSoC6\\pdl\\devices/psoc6/include/psoc6_01_config.h"
 366              		.file 8 "Generated_Source\\PSoC6\\pdl\\drivers/peripheral/device/cy_device.h"
 367              		.file 9 "Generated_Source\\PSoC6\\pdl\\drivers/peripheral/syslib/cy_syslib.h"
 368              		.file 10 "Generated_Source\\PSoC6\\pdl\\drivers/peripheral/sysint/cy_sysint.h"
 369              		.file 11 "Generated_Source\\PSoC6\\pdl\\drivers/peripheral/sar/cy_sar.h"
 370              		.file 12 "Generated_Source\\PSoC6\\pdl\\drivers/peripheral/scb/cy_scb_i2c.h"
 371              		.file 13 "Generated_Source\\PSoC6\\pdl\\drivers/peripheral/scb/cy_scb_uart.h"
 372              		.file 14 "Generated_Source\\PSoC6\\pdl\\middleware/ble/cy_ble_stack.h"
 373              		.file 15 "Generated_Source\\PSoC6\\pdl\\middleware/ble/cy_ble_stack_host_main.h"
 374              		.file 16 "Generated_Source\\PSoC6\\pdl\\middleware/ble/cy_ble_gap.h"
 375              		.file 17 "Generated_Source\\PSoC6/Batteri_ADC.h"
 376              		.file 18 "Generated_Source\\PSoC6/idleTimer.h"
 377              		.file 19 "Generated_Source\\PSoC6\\pdl\\cmsis/include/core_cm4.h"
 378              		.file 20 "Generated_Source\\PSoC6/cyfitter_sysint_cfg.h"
 379              		.file 21 "Generated_Source\\PSoC6/UART_DEB.h"
 380              		.file 22 "Generated_Source\\PSoC6/I2C_MPU6050.h"
 381              		.file 23 "Generated_Source\\PSoC6/ADC_Timer.h"
 382              		.file 24 "Generated_Source\\PSoC6/SampleTimer.h"
 383              		.file 25 "kadenceControl.h"
 384              		.file 26 "c:\\program files (x86)\\cypress\\psoc creator\\4.4\\psoc creator\\import\\gnu\\arm\\5.4
 385              		.file 27 "VT100Terminal.h"
 386              		.file 28 "trykControl.h"
 387              		.file 29 "c:\\program files (x86)\\cypress\\psoc creator\\4.4\\psoc creator\\import\\gnu\\arm\\5.4