ARM GAS  C:\Users\cring\AppData\Local\Temp\ccihMUub.s 			page 1


   1              		.syntax unified
   2              		.cpu cortex-m3
   3              		.fpu softvfp
   4              		.eabi_attribute 20, 1
   5              		.eabi_attribute 21, 1
   6              		.eabi_attribute 23, 3
   7              		.eabi_attribute 24, 1
   8              		.eabi_attribute 25, 1
   9              		.eabi_attribute 26, 1
  10              		.eabi_attribute 30, 1
  11              		.eabi_attribute 34, 1
  12              		.eabi_attribute 18, 4
  13              		.thumb
  14              		.syntax unified
  15              		.file	"ADCserial.c"
  16              		.text
  17              	.Ltext0:
  18              		.cfi_sections	.debug_frame
  19              		.section	.text.isr_timer,"ax",%progbits
  20              		.align	2
  21              		.global	isr_timer
  22              		.thumb
  23              		.thumb_func
  24              		.type	isr_timer, %function
  25              	isr_timer:
  26              	.LFB63:
  27              		.file 1 "ADCserial.c"
   1:ADCserial.c   **** /* ========================================
   2:ADCserial.c   ****  *
   3:ADCserial.c   ****  * Copyright YOUR COMPANY, THE YEAR
   4:ADCserial.c   ****  * All Rights Reserved
   5:ADCserial.c   ****  * UNPUBLISHED, LICENSED SOFTWARE.
   6:ADCserial.c   ****  *
   7:ADCserial.c   ****  * CONFIDENTIAL AND PROPRIETARY INFORMATION
   8:ADCserial.c   ****  * WHICH IS THE PROPERTY OF your company.
   9:ADCserial.c   ****  *
  10:ADCserial.c   ****  * ========================================
  11:ADCserial.c   **** */
  12:ADCserial.c   **** 
  13:ADCserial.c   **** /* [] END OF FILE */
  14:ADCserial.c   **** #include "ADCserial.h"
  15:ADCserial.c   **** 
  16:ADCserial.c   **** int test = 0;
  17:ADCserial.c   **** 
  18:ADCserial.c   **** CY_ISR(isr_timer)
  19:ADCserial.c   **** {
  28              		.loc 1 19 0
  29              		.cfi_startproc
  30              		@ args = 0, pretend = 0, frame = 0
  31              		@ frame_needed = 0, uses_anonymous_args = 0
  32              		@ link register save eliminated.
  33 0000 7047     		bx	lr
  34              		.cfi_endproc
  35              	.LFE63:
  36              		.size	isr_timer, .-isr_timer
  37 0002 00BF     		.section	.text.set_pin,"ax",%progbits
  38              		.align	2
ARM GAS  C:\Users\cring\AppData\Local\Temp\ccihMUub.s 			page 2


  39              		.global	set_pin
  40              		.thumb
  41              		.thumb_func
  42              		.type	set_pin, %function
  43              	set_pin:
  44              	.LFB64:
  20:ADCserial.c   ****     switch(test)
  21:ADCserial.c   ****     {
  22:ADCserial.c   ****         case 0:
  23:ADCserial.c   ****         {
  24:ADCserial.c   ****             
  25:ADCserial.c   ****         }
  26:ADCserial.c   ****         break;
  27:ADCserial.c   ****         
  28:ADCserial.c   ****         case 1:
  29:ADCserial.c   ****         {
  30:ADCserial.c   ****             
  31:ADCserial.c   ****         }
  32:ADCserial.c   ****         break;
  33:ADCserial.c   ****     }
  34:ADCserial.c   ****     
  35:ADCserial.c   ****     
  36:ADCserial.c   ****     
  37:ADCserial.c   **** }
  38:ADCserial.c   **** 
  39:ADCserial.c   **** void set_pin(char value)
  40:ADCserial.c   **** {
  45              		.loc 1 40 0
  46              		.cfi_startproc
  47              		@ args = 0, pretend = 0, frame = 0
  48              		@ frame_needed = 0, uses_anonymous_args = 0
  49              		@ link register save eliminated.
  50              	.LVL0:
  51 0000 7047     		bx	lr
  52              		.cfi_endproc
  53              	.LFE64:
  54              		.size	set_pin, .-set_pin
  55 0002 00BF     		.section	.text.ADC_init,"ax",%progbits
  56              		.align	2
  57              		.global	ADC_init
  58              		.thumb
  59              		.thumb_func
  60              		.type	ADC_init, %function
  61              	ADC_init:
  62              	.LFB65:
  41:ADCserial.c   ****     
  42:ADCserial.c   **** }
  43:ADCserial.c   **** 
  44:ADCserial.c   **** void ADC_init(int gain)
  45:ADCserial.c   **** {
  63              		.loc 1 45 0
  64              		.cfi_startproc
  65              		@ args = 0, pretend = 0, frame = 0
  66              		@ frame_needed = 0, uses_anonymous_args = 0
  67              	.LVL1:
  68              		.loc 1 45 0
  69 0000 08B5     		push	{r3, lr}
ARM GAS  C:\Users\cring\AppData\Local\Temp\ccihMUub.s 			page 3


  70              		.cfi_def_cfa_offset 8
  71              		.cfi_offset 3, -8
  72              		.cfi_offset 14, -4
  46:ADCserial.c   ****     test = 0;
  73              		.loc 1 46 0
  74 0002 0022     		movs	r2, #0
  75 0004 034B     		ldr	r3, .L5
  76 0006 1A60     		str	r2, [r3]
  47:ADCserial.c   ****     Timer_1_ClearFIFO();
  77              		.loc 1 47 0
  78 0008 FFF7FEFF 		bl	Timer_1_ClearFIFO
  79              	.LVL2:
  48:ADCserial.c   ****     Timer_1_Start();
  80              		.loc 1 48 0
  81 000c FFF7FEFF 		bl	Timer_1_Start
  82              	.LVL3:
  83 0010 08BD     		pop	{r3, pc}
  84              	.L6:
  85 0012 00BF     		.align	2
  86              	.L5:
  87 0014 00000000 		.word	.LANCHOR0
  88              		.cfi_endproc
  89              	.LFE65:
  90              		.size	ADC_init, .-ADC_init
  91              		.section	.text.ADC_read,"ax",%progbits
  92              		.align	2
  93              		.global	ADC_read
  94              		.thumb
  95              		.thumb_func
  96              		.type	ADC_read, %function
  97              	ADC_read:
  98              	.LFB66:
  49:ADCserial.c   ****     
  50:ADCserial.c   ****     
  51:ADCserial.c   **** }
  52:ADCserial.c   **** 
  53:ADCserial.c   **** int ADC_read()
  54:ADCserial.c   **** {
  99              		.loc 1 54 0
 100              		.cfi_startproc
 101              		@ args = 0, pretend = 0, frame = 0
 102              		@ frame_needed = 0, uses_anonymous_args = 0
 103 0000 08B5     		push	{r3, lr}
 104              		.cfi_def_cfa_offset 8
 105              		.cfi_offset 3, -8
 106              		.cfi_offset 14, -4
  55:ADCserial.c   ****     test = 1;
 107              		.loc 1 55 0
 108 0002 0122     		movs	r2, #1
 109 0004 024B     		ldr	r3, .L9
 110 0006 1A60     		str	r2, [r3]
  56:ADCserial.c   ****     Timer_1_Start();
 111              		.loc 1 56 0
 112 0008 FFF7FEFF 		bl	Timer_1_Start
 113              	.LVL4:
  57:ADCserial.c   ****     
  58:ADCserial.c   **** }
ARM GAS  C:\Users\cring\AppData\Local\Temp\ccihMUub.s 			page 4


 114              		.loc 1 58 0
 115 000c 08BD     		pop	{r3, pc}
 116              	.L10:
 117 000e 00BF     		.align	2
 118              	.L9:
 119 0010 00000000 		.word	.LANCHOR0
 120              		.cfi_endproc
 121              	.LFE66:
 122              		.size	ADC_read, .-ADC_read
 123              		.global	test
 124              		.bss
 125              		.align	2
 126              		.set	.LANCHOR0,. + 0
 127              		.type	test, %object
 128              		.size	test, 4
 129              	test:
 130 0000 00000000 		.space	4
 131              		.text
 132              	.Letext0:
 133              		.file 2 "c:\\program files (x86)\\cypress\\psoc creator\\4.4\\psoc creator\\import\\gnu\\arm\\5.4.
 134              		.file 3 "c:\\program files (x86)\\cypress\\psoc creator\\4.4\\psoc creator\\import\\gnu\\arm\\5.4.
 135              		.file 4 "Generated_Source\\PSoC5/core_cm3.h"
 136              		.file 5 "Generated_Source\\PSoC5/Timer_1.h"