ARM GAS  C:\Users\cring\AppData\Local\Temp\ccGyMyVx.s 			page 1


   1              		.syntax unified
   2              		.cpu cortex-m3
   3              		.fpu softvfp
   4              		.eabi_attribute 20, 1
   5              		.eabi_attribute 21, 1
   6              		.eabi_attribute 23, 3
   7              		.eabi_attribute 24, 1
   8              		.eabi_attribute 25, 1
   9              		.eabi_attribute 26, 1
  10              		.eabi_attribute 30, 6
  11              		.eabi_attribute 34, 1
  12              		.eabi_attribute 18, 4
  13              		.thumb
  14              		.syntax unified
  15              		.file	"main.c"
  16              		.text
  17              	.Ltext0:
  18              		.cfi_sections	.debug_frame
  19              		.section	.text.ISR_UART_rx_handler,"ax",%progbits
  20              		.align	2
  21              		.global	ISR_UART_rx_handler
  22              		.thumb
  23              		.thumb_func
  24              		.type	ISR_UART_rx_handler, %function
  25              	ISR_UART_rx_handler:
  26              	.LFB64:
  27              		.file 1 "main.c"
   1:main.c        **** /* ========================================
   2:main.c        ****  *
   3:main.c        ****  * Copyright YOUR COMPANY, THE YEAR
   4:main.c        ****  * All Rights Reserved
   5:main.c        ****  * UNPUBLISHED, LICENSED SOFTWARE.
   6:main.c        ****  *
   7:main.c        ****  * CONFIDENTIAL AND PROPRIETARY INFORMATION
   8:main.c        ****  * WHICH IS THE PROPERTY OF your company.
   9:main.c        ****  *
  10:main.c        ****  * ========================================
  11:main.c        **** */
  12:main.c        **** #include "project.h"
  13:main.c        **** #include "VT100Terminal.h"
  14:main.c        **** #include "trykControl.h"
  15:main.c        **** #include "stdio.h"
  16:main.c        **** 
  17:main.c        **** CY_ISR_PROTO(ISR_UART_rx_handler);
  18:main.c        **** void handleByteReceived(uint8_t byteReceived);
  19:main.c        **** 
  20:main.c        **** CY_ISR(ISR_UART_rx_handler)
  21:main.c        **** {
  28              		.loc 1 21 0
  29              		.cfi_startproc
  30              		@ args = 0, pretend = 0, frame = 8
  31              		@ frame_needed = 1, uses_anonymous_args = 0
  32 0000 80B5     		push	{r7, lr}
  33              		.cfi_def_cfa_offset 8
  34              		.cfi_offset 7, -8
  35              		.cfi_offset 14, -4
  36 0002 82B0     		sub	sp, sp, #8
ARM GAS  C:\Users\cring\AppData\Local\Temp\ccGyMyVx.s 			page 2


  37              		.cfi_def_cfa_offset 16
  38 0004 00AF     		add	r7, sp, #0
  39              		.cfi_def_cfa_register 7
  22:main.c        ****     uint8_t bytesToRead = UART_1_GetRxBufferSize();
  40              		.loc 1 22 0
  41 0006 FFF7FEFF 		bl	UART_1_GetRxBufferSize
  42 000a 0346     		mov	r3, r0
  43 000c FB71     		strb	r3, [r7, #7]
  23:main.c        ****     while (bytesToRead > 0)
  44              		.loc 1 23 0
  45 000e 0AE0     		b	.L2
  46              	.L3:
  47              	.LBB2:
  24:main.c        ****     {
  25:main.c        ****         uint8_t byteReceived = UART_1_ReadRxData();
  48              		.loc 1 25 0
  49 0010 FFF7FEFF 		bl	UART_1_ReadRxData
  50 0014 0346     		mov	r3, r0
  51 0016 BB71     		strb	r3, [r7, #6]
  26:main.c        ****         UART_1_WriteTxData(byteReceived); // echo back    
  52              		.loc 1 26 0
  53 0018 BB79     		ldrb	r3, [r7, #6]	@ zero_extendqisi2
  54 001a 1846     		mov	r0, r3
  55 001c FFF7FEFF 		bl	UART_1_WriteTxData
  27:main.c        ****         bytesToRead--;
  56              		.loc 1 27 0
  57 0020 FB79     		ldrb	r3, [r7, #7]	@ zero_extendqisi2
  58 0022 013B     		subs	r3, r3, #1
  59 0024 FB71     		strb	r3, [r7, #7]
  60              	.L2:
  61              	.LBE2:
  23:main.c        ****     {
  62              		.loc 1 23 0
  63 0026 FB79     		ldrb	r3, [r7, #7]	@ zero_extendqisi2
  64 0028 002B     		cmp	r3, #0
  65 002a F1D1     		bne	.L3
  28:main.c        ****     }
  29:main.c        **** }
  66              		.loc 1 29 0
  67 002c 00BF     		nop
  68 002e 0837     		adds	r7, r7, #8
  69              		.cfi_def_cfa_offset 8
  70 0030 BD46     		mov	sp, r7
  71              		.cfi_def_cfa_register 13
  72              		@ sp needed
  73 0032 80BD     		pop	{r7, pc}
  74              		.cfi_endproc
  75              	.LFE64:
  76              		.size	ISR_UART_rx_handler, .-ISR_UART_rx_handler
  77              		.section	.rodata
  78              		.align	2
  79              	.LC0:
  80 0000 53746172 		.ascii	"Startup\012\015\000"
  80      7475700A 
  80      0D00
  81 000a 0000     		.align	2
  82              	.LC1:
ARM GAS  C:\Users\cring\AppData\Local\Temp\ccGyMyVx.s 			page 3


  83 000c 256C750D 		.ascii	"%lu\015\012\000"
  83      0A00
  84              		.section	.text.main,"ax",%progbits
  85              		.align	2
  86              		.global	main
  87              		.thumb
  88              		.thumb_func
  89              		.type	main, %function
  90              	main:
  91              	.LFB65:
  30:main.c        **** 
  31:main.c        **** int main(void)
  32:main.c        **** {
  92              		.loc 1 32 0
  93              		.cfi_startproc
  94              		@ args = 0, pretend = 0, frame = 40
  95              		@ frame_needed = 1, uses_anonymous_args = 0
  96 0000 80B5     		push	{r7, lr}
  97              		.cfi_def_cfa_offset 8
  98              		.cfi_offset 7, -8
  99              		.cfi_offset 14, -4
 100 0002 8AB0     		sub	sp, sp, #40
 101              		.cfi_def_cfa_offset 48
 102 0004 00AF     		add	r7, sp, #0
 103              		.cfi_def_cfa_register 7
  33:main.c        ****     CyGlobalIntEnable; /* Enable global interrupts. */
 104              		.loc 1 33 0
 105              		.syntax unified
 106              	@ 33 "main.c" 1
 107 0006 62B6     		CPSIE   i
 108              	@ 0 "" 2
  34:main.c        **** 
  35:main.c        ****     /* Place your initialization/startup code here (e.g. MyInst_Start()) */
  36:main.c        ****     isr_uart_rx_StartEx(ISR_UART_rx_handler);
 109              		.loc 1 36 0
 110              		.thumb
 111              		.syntax unified
 112 0008 1048     		ldr	r0, .L6
 113 000a FFF7FEFF 		bl	isr_uart_rx_StartEx
  37:main.c        ****     UART_1_Start();
 114              		.loc 1 37 0
 115 000e FFF7FEFF 		bl	UART_1_Start
  38:main.c        ****     UART_1_PutString("Startup\n\r");
 116              		.loc 1 38 0
 117 0012 0F48     		ldr	r0, .L6+4
 118 0014 FFF7FEFF 		bl	UART_1_PutString
  39:main.c        ****     initTrykSensor();
 119              		.loc 1 39 0
 120 0018 FFF7FEFF 		bl	initTrykSensor
  40:main.c        ****     
  41:main.c        ****     
  42:main.c        ****     char buf[40] = {0};
 121              		.loc 1 42 0
 122 001c 3B46     		mov	r3, r7
 123 001e 2822     		movs	r2, #40
 124 0020 0021     		movs	r1, #0
 125 0022 1846     		mov	r0, r3
ARM GAS  C:\Users\cring\AppData\Local\Temp\ccGyMyVx.s 			page 4


 126 0024 FFF7FEFF 		bl	memset
 127              	.L5:
  43:main.c        ****     for(;;)
  44:main.c        ****     {   
  45:main.c        ****         CyDelay(200);
 128              		.loc 1 45 0 discriminator 1
 129 0028 C820     		movs	r0, #200
 130 002a FFF7FEFF 		bl	CyDelay
  46:main.c        ****         //sprintf(buf, "%li\r\n", ADC_read());
  47:main.c        ****         sprintf(buf, "%lu\r\n", getVaegt(100));
 131              		.loc 1 47 0 discriminator 1
 132 002e 6420     		movs	r0, #100
 133 0030 FFF7FEFF 		bl	getVaegt
 134 0034 0246     		mov	r2, r0
 135 0036 3B46     		mov	r3, r7
 136 0038 0649     		ldr	r1, .L6+8
 137 003a 1846     		mov	r0, r3
 138 003c FFF7FEFF 		bl	sprintf
  48:main.c        ****         UART_1_PutString(buf);
 139              		.loc 1 48 0 discriminator 1
 140 0040 3B46     		mov	r3, r7
 141 0042 1846     		mov	r0, r3
 142 0044 FFF7FEFF 		bl	UART_1_PutString
  49:main.c        ****         /* Place your application code here. */
  50:main.c        ****     }
 143              		.loc 1 50 0 discriminator 1
 144 0048 EEE7     		b	.L5
 145              	.L7:
 146 004a 00BF     		.align	2
 147              	.L6:
 148 004c 00000000 		.word	ISR_UART_rx_handler
 149 0050 00000000 		.word	.LC0
 150 0054 0C000000 		.word	.LC1
 151              		.cfi_endproc
 152              	.LFE65:
 153              		.size	main, .-main
 154              		.text
 155              	.Letext0:
 156              		.file 2 "c:\\program files (x86)\\cypress\\psoc creator\\4.4\\psoc creator\\import\\gnu\\arm\\5.4.
 157              		.file 3 "c:\\program files (x86)\\cypress\\psoc creator\\4.4\\psoc creator\\import\\gnu\\arm\\5.4.
 158              		.file 4 "Generated_Source\\PSoC5/core_cm3.h"